ccopy_reg
_reconstructor
p0
(cdfrpgmon2
FATEGAME
p1
c__builtin__
object
p2
Ntp3
Rp4
(dp5
S'rolling'
p6
g0
(cdfrpgmon2
PlayerDice
p7
g2
Ntp8
Rp9
(dp10
S'rolls'
p11
(dp12
sbsS'config'
p13
(dp14
S'pickle'
p15
S'sb.pkl'
p16
sS'revisionfile'
p17
S''
p18
sS'title'
p19
S'Shadows of Blood'
p20
ssS'lookup'
p21
g0
(cdfrpgmon2
Lookup
p22
g2
Ntp23
Rp24
(dp25
S'_nicks'
p26
(dp27
S'Bingo'
p28
S'Bingo'
p29
sS'Jackson'
p30
S'TheNPCs'
p31
sS'Fomor2'
p32
S'TheNPCs'
p33
sS'Fa'
p34
S'Fa'
p35
sS'Umbra'
p36
S'med'
p37
sS'Nick'
p38
S'Nick'
p39
sS'Alan'
p40
S'Alan'
p41
sS'Mike'
p42
S'med'
p43
sS'Cops'
p44
S'TheNPCs'
p45
sS'ChickenLittle'
p46
S'Mallory'
p47
sS'Rayne'
p48
S'med'
p49
sS'Casey'
p50
S'Casey'
p51
sS'Sylph'
p52
S'Sylph'
p53
sS'Reagle'
p54
S'med'
p55
sS'Templars2'
p56
S'TheNPCs'
p57
sS'Templars'
p58
S'NPCGroups'
p59
sS'Christine'
p60
S'Christine'
p61
sS'Mallory'
p62
S'Mallory'
p63
sS'Clive'
p64
S'Clive'
p65
sS'Michael'
p66
S'Mike'
p67
sS'Fomor'
p68
S'Fomor'
p69
sS'HCs'
p70
S'NPCGroups'
p71
sS'Fa2'
p72
S'TheNPCs'
p73
sS'Scene'
p74
S'Nick'
p75
sS'Vermis'
p76
S'Vermis'
p77
ssS'_aliases'
p78
(dp79
S'mallory'
p80
g0
(cdfrpgmon2
Character
p81
g2
Ntp82
Rp83
(dp84
S'stress'
p85
(dp86
S'h'
p87
g0
(cdfrpgmon2
StressTrack
p88
g2
Ntp89
Rp90
(dp91
S'boxes'
p92
I4
sS'persist'
p93
I01
sS'checked'
p94
(lp95
sS'shortname'
p96
S'H'
p97
sS'name'
p98
S'Hunger'
p99
sbsS'm'
p100
g0
(g88
g2
Ntp101
Rp102
(dp103
S'boxes'
p104
I3
sS'persist'
p105
I00
sS'checked'
p106
(lp107
sS'shortname'
p108
S'M'
p109
sS'name'
p110
S'Mental'
p111
sbsS'p'
p112
g0
(g88
g2
Ntp113
Rp114
(dp115
S'boxes'
p116
I3
sS'persist'
p117
I00
sS'checked'
p118
(lp119
sS'shortname'
p120
S'P'
p121
sS'name'
p122
S'Physical'
p123
sbssS'aspects'
p124
(dp125
sS'NPC'
p126
I00
sS'fate'
p127
g0
(cdfrpgmon2
Fate
p128
g2
Ntp129
Rp130
(dp131
S'fate'
p132
I2
sS'refresh'
p133
I1
sbsS'name'
p134
S'Mallory'
p135
sbsS'clive'
p136
g0
(g81
g2
Ntp137
Rp138
(dp139
S'stress'
p140
(dp141
S'p'
p142
g0
(g88
g2
Ntp143
Rp144
(dp145
S'boxes'
p146
I3
sS'persist'
p147
I00
sS'checked'
p148
(lp149
sS'shortname'
p150
S'P'
p151
sS'name'
p152
S'Physical'
p153
sbsS'm'
p154
g0
(g88
g2
Ntp155
Rp156
(dp157
S'boxes'
p158
I4
sS'persist'
p159
I00
sS'checked'
p160
(lp161
sS'shortname'
p162
S'M'
p163
sS'name'
p164
S'Mental'
p165
sbssS'aspects'
p166
(dp167
sS'NPC'
p168
I00
sS'fate'
p169
g0
(g128
g2
Ntp170
Rp171
(dp172
S'fate'
p173
I3
sS'refresh'
p174
I1
sbsS'name'
p175
S'Clive'
p176
sbsS'mallory#nick'
p177
g83
sS'rayne#nick'
p178
g0
(g81
g2
Ntp179
Rp180
(dp181
S'stress'
p182
(dp183
S'p'
p184
g0
(g88
g2
Ntp185
Rp186
(dp187
S'boxes'
p188
I3
sS'persist'
p189
I00
sS'checked'
p190
(lp191
sS'shortname'
p192
S'P'
p193
sS'name'
p194
S'Physical'
p195
sbsS'm'
p196
g0
(g88
g2
Ntp197
Rp198
(dp199
S'boxes'
p200
I4
sS'persist'
p201
I00
sS'checked'
p202
(lp203
sS'shortname'
p204
S'M'
p205
sS'name'
p206
S'Mental'
p207
sbssS'aspects'
p208
(dp209
S'slightly singed wing'
p210
g0
(cdfrpgmon2
Aspect
p211
g2
Ntp212
Rp213
(dp214
S'flag_transformers'
p215
(dp216
S'consmild'
p217
((lp218
S'mild'
p219
aI01
tp220
sS'style'
p221
((lp222
S'#'
p223
aS'#'
p224
aNtp225
sS'fragile'
p226
((lp227
S'f'
p228
aI00
tp229
sS'conssev'
p230
((lp231
S'severe'
p232
aI01
tp233
sS'consmod'
p234
((lp235
S'moderate'
p236
aI01
tp237
sS'consmoderate'
p238
((lp239
S'moderate'
p240
aI01
tp241
sS'conssevere'
p242
((lp243
S'severe'
p244
aI01
tp245
ssS'flags'
p246
(lp247
S'mild'
p248
aS'#'
p249
asS'name'
p250
S'slightly singed wing'
p251
sS'persist'
p252
I01
sbssS'NPC'
p253
I00
sS'fate'
p254
g0
(g128
g2
Ntp255
Rp256
(dp257
S'fate'
p258
I4
sS'refresh'
p259
I1
sbsS'name'
p260
S'Rayne'
p261
sbsS'vermis'
p262
g0
(g81
g2
Ntp263
Rp264
(dp265
S'stress'
p266
(dp267
S'h'
p268
g0
(g88
g2
Ntp269
Rp270
(dp271
S'boxes'
p272
I4
sS'persist'
p273
I01
sS'checked'
p274
(lp275
sS'shortname'
p276
S'H'
p277
sS'name'
p278
S'Hunger'
p279
sbsS'm'
p280
g0
(g88
g2
Ntp281
Rp282
(dp283
S'boxes'
p284
I4
sS'persist'
p285
I00
sS'checked'
p286
(lp287
sS'shortname'
p288
S'M'
p289
sS'name'
p290
S'Mental'
p291
sbsS'p'
p292
g0
(g88
g2
Ntp293
Rp294
(dp295
S'boxes'
p296
I4
sS'persist'
p297
I00
sS'checked'
p298
(lp299
sS'shortname'
p300
S'P'
p301
sS'name'
p302
S'Physical'
p303
sbssS'aspects'
p304
(dp305
S'limbs!'
p306
g0
(g211
g2
Ntp307
Rp308
(dp309
S'flag_transformers'
p310
(dp311
S'consmild'
p312
((lp313
S'mild'
p314
aI01
tp315
sS'style'
p316
((lp317
S'#'
p318
aS'#'
p319
aNtp320
sS'fragile'
p321
((lp322
S'f'
p323
aI00
tp324
sS'conssev'
p325
((lp326
S'severe'
p327
aI01
tp328
sS'consmod'
p329
((lp330
S'moderate'
p331
aI01
tp332
sS'consmoderate'
p333
((lp334
S'moderate'
p335
aI01
tp336
sS'conssevere'
p337
((lp338
S'severe'
p339
aI01
tp340
ssS'flags'
p341
(lp342
S'moderate'
p343
aS'#'
p344
asS'name'
p345
S'Limbs!'
p346
sS'persist'
p347
I01
sbsS'shitfuck!'
p348
g0
(g211
g2
Ntp349
Rp350
(dp351
S'flag_transformers'
p352
(dp353
S'consmild'
p354
((lp355
S'mild'
p356
aI01
tp357
sS'style'
p358
((lp359
S'#'
p360
aS'#'
p361
aNtp362
sS'fragile'
p363
((lp364
S'f'
p365
aI00
tp366
sS'conssev'
p367
((lp368
S'severe'
p369
aI01
tp370
sS'consmod'
p371
((lp372
S'moderate'
p373
aI01
tp374
sS'consmoderate'
p375
((lp376
S'moderate'
p377
aI01
tp378
sS'conssevere'
p379
((lp380
S'severe'
p381
aI01
tp382
ssS'flags'
p383
(lp384
S'severe'
p385
aS'#'
p386
asS'name'
p387
S'Shitfuck!'
p388
sS'persist'
p389
I01
sbssS'NPC'
p390
I00
sS'fate'
p391
g0
(g128
g2
Ntp392
Rp393
(dp394
S'fate'
p395
I2
sS'refresh'
p396
I2
sbsS'name'
p397
S'Vermis'
p398
sbsS'bingo'
p399
g0
(g81
g2
Ntp400
Rp401
(dp402
S'stress'
p403
(dp404
S'p'
p405
g0
(g88
g2
Ntp406
Rp407
(dp408
S'boxes'
p409
I3
sS'persist'
p410
I00
sS'checked'
p411
(lp412
sS'shortname'
p413
S'P'
p414
sS'name'
p415
S'Physical'
p416
sbsS'm'
p417
g0
(g88
g2
Ntp418
Rp419
(dp420
S'boxes'
p421
I3
sS'persist'
p422
I00
sS'checked'
p423
(lp424
sS'shortname'
p425
S'M'
p426
sS'name'
p427
S'Mental'
p428
sbssS'aspects'
p429
(dp430
sS'NPC'
p431
I00
sS'fate'
p432
g0
(g128
g2
Ntp433
Rp434
(dp435
S'fate'
p436
I7
sS'refresh'
p437
I11
sbsS'name'
p438
S'Bingo'
p439
sbsS'christine#nick'
p440
g0
(g81
g2
Ntp441
Rp442
(dp443
S'stress'
p444
(dp445
S'p'
p446
g0
(g88
g2
Ntp447
Rp448
(dp449
S'boxes'
p450
I3
sS'persist'
p451
I00
sS'checked'
p452
(lp453
sS'shortname'
p454
S'P'
p455
sS'name'
p456
S'Physical'
p457
sbsS'm'
p458
g0
(g88
g2
Ntp459
Rp460
(dp461
S'boxes'
p462
I3
sS'persist'
p463
I00
sS'checked'
p464
(lp465
sS'shortname'
p466
S'M'
p467
sS'name'
p468
S'Mental'
p469
sbssS'aspects'
p470
(dp471
sS'NPC'
p472
I00
sS'fate'
p473
g0
(g128
g2
Ntp474
Rp475
(dp476
S'fate'
p477
I7
sS'refresh'
p478
I7
sbsS'name'
p479
S'Christine'
p480
sbsS'jackson'
p481
g0
(g81
g2
Ntp482
Rp483
(dp484
S'stress'
p485
(dp486
S'p'
p487
g0
(g88
g2
Ntp488
Rp489
(dp490
S'boxes'
p491
I4
sS'persist'
p492
I00
sS'checked'
p493
(lp494
sS'shortname'
p495
S'P'
p496
sS'name'
p497
S'Physical'
p498
sbsS'm'
p499
g0
(g88
g2
Ntp500
Rp501
(dp502
S'boxes'
p503
I4
sS'persist'
p504
I00
sS'checked'
p505
(lp506
sS'shortname'
p507
S'M'
p508
sS'name'
p509
S'Mental'
p510
sbssS'aspects'
p511
(dp512
sS'NPC'
p513
I00
sS'fate'
p514
g0
(g128
g2
Ntp515
Rp516
(dp517
S'fate'
p518
I5
sS'refresh'
p519
I6
sbsS'name'
p520
S'Jackson'
p521
sbsS'chickenlittle#nick'
p522
g0
(g81
g2
Ntp523
Rp524
(dp525
S'stress'
p526
(dp527
S'h'
p528
g0
(g88
g2
Ntp529
Rp530
(dp531
S'boxes'
p532
I4
sS'persist'
p533
I01
sS'checked'
p534
(lp535
sS'shortname'
p536
S'H'
p537
sS'name'
p538
S'Hunger'
p539
sbsS'm'
p540
g0
(g88
g2
Ntp541
Rp542
(dp543
S'boxes'
p544
I3
sS'persist'
p545
I00
sS'checked'
p546
(lp547
sS'shortname'
p548
S'M'
p549
sS'name'
p550
S'Mental'
p551
sbsS'p'
p552
g0
(g88
g2
Ntp553
Rp554
(dp555
S'boxes'
p556
I8
sS'persist'
p557
I00
sS'checked'
p558
(lp559
sS'shortname'
p560
S'P'
p561
sS'name'
p562
S'Physical'
p563
sbssS'aspects'
p564
(dp565
sS'NPC'
p566
I00
sS'fate'
p567
g0
(g128
g2
Ntp568
Rp569
(dp570
S'fate'
p571
I3
sS'refresh'
p572
I1
sbsS'name'
p573
S'ChickenLittle'
p574
sbsS'chickenlittle'
p575
g524
sS'alan#nick'
p576
g0
(g81
g2
Ntp577
Rp578
(dp579
S'stress'
p580
(dp581
S'p'
p582
g0
(g88
g2
Ntp583
Rp584
(dp585
S'boxes'
p586
I4
sS'persist'
p587
I00
sS'checked'
p588
(lp589
sS'shortname'
p590
S'P'
p591
sS'name'
p592
S'Physical'
p593
sbsS'm'
p594
g0
(g88
g2
Ntp595
Rp596
(dp597
S'boxes'
p598
I3
sS'persist'
p599
I00
sS'checked'
p600
(lp601
sS'shortname'
p602
S'M'
p603
sS'name'
p604
S'Mental'
p605
sbssS'aspects'
p606
(dp607
sS'NPC'
p608
I00
sS'fate'
p609
g0
(g128
g2
Ntp610
Rp611
(dp612
S'fate'
p613
I5
sS'refresh'
p614
I1
sbsS'name'
p615
S'Alan'
p616
sbsS'umbra'
p617
g0
(g81
g2
Ntp618
Rp619
(dp620
S'stress'
p621
(dp622
S'p'
p623
g0
(g88
g2
Ntp624
Rp625
(dp626
S'boxes'
p627
I7
sS'persist'
p628
I00
sS'checked'
p629
(lp630
sS'shortname'
p631
S'P'
p632
sS'name'
p633
S'Physical'
p634
sbsS'm'
p635
g0
(g88
g2
Ntp636
Rp637
(dp638
S'boxes'
p639
I3
sS'persist'
p640
I00
sS'checked'
p641
(lp642
sS'shortname'
p643
S'M'
p644
sS'name'
p645
S'Mental'
p646
sbssS'aspects'
p647
(dp648
S'foiled by the fa'
p649
g0
(g211
g2
Ntp650
Rp651
(dp652
S'flag_transformers'
p653
(dp654
S'consmild'
p655
((lp656
S'mild'
p657
aI01
tp658
sS'style'
p659
((lp660
S'#'
p661
aS'#'
p662
aNtp663
sS'fragile'
p664
((lp665
S'f'
p666
aI00
tp667
sS'conssev'
p668
((lp669
S'severe'
p670
aI01
tp671
sS'consmod'
p672
((lp673
S'moderate'
p674
aI01
tp675
sS'consmoderate'
p676
((lp677
S'moderate'
p678
aI01
tp679
sS'conssevere'
p680
((lp681
S'severe'
p682
aI01
tp683
ssS'flags'
p684
(lp685
S'mild'
p686
aS'#'
p687
asS'name'
p688
S'Foiled BY the Fa'
p689
sS'persist'
p690
I01
sbsS'petard hoist'
p691
g0
(g211
g2
Ntp692
Rp693
(dp694
S'flag_transformers'
p695
(dp696
S'consmild'
p697
((lp698
S'mild'
p699
aI01
tp700
sS'style'
p701
((lp702
S'#'
p703
aS'#'
p704
aNtp705
sS'fragile'
p706
((lp707
S'f'
p708
aI00
tp709
sS'conssev'
p710
((lp711
S'severe'
p712
aI01
tp713
sS'consmod'
p714
((lp715
S'moderate'
p716
aI01
tp717
sS'consmoderate'
p718
((lp719
S'moderate'
p720
aI01
tp721
sS'conssevere'
p722
((lp723
S'severe'
p724
aI01
tp725
ssS'flags'
p726
(lp727
S'moderate'
p728
aS'#'
p729
asS'name'
p730
S'Petard Hoist'
p731
sS'persist'
p732
I01
sbssS'NPC'
p733
I00
sS'fate'
p734
g0
(g128
g2
Ntp735
Rp736
(dp737
S'fate'
p738
I3
sS'refresh'
p739
I3
sbsS'name'
p740
S'Umbra'
p741
sbsS'nick'
p742
g0
(g81
g2
Ntp743
Rp744
(dp745
S'stress'
p746
(dp747
S'p'
p748
g0
(g88
g2
Ntp749
Rp750
(dp751
S'boxes'
p752
I4
sS'persist'
p753
I00
sS'checked'
p754
(lp755
sS'shortname'
p756
S'P'
p757
sS'name'
p758
S'Physical'
p759
sbsS'm'
p760
g0
(g88
g2
Ntp761
Rp762
(dp763
S'boxes'
p764
I4
sS'persist'
p765
I00
sS'checked'
p766
(lp767
sS'shortname'
p768
S'M'
p769
sS'name'
p770
S'Mental'
p771
sbssS'aspects'
p772
(dp773
sS'NPC'
p774
I00
sS'fate'
p775
g0
(g128
g2
Ntp776
Rp777
(dp778
S'fate'
p779
I6
sS'refresh'
p780
I1
sbsS'name'
p781
S'Nick'
p782
sbsS'michael#nick'
p783
g0
(g81
g2
Ntp784
Rp785
(dp786
S'stress'
p787
(dp788
S'p'
p789
g0
(g88
g2
Ntp790
Rp791
(dp792
S'boxes'
p793
I3
sS'persist'
p794
I00
sS'checked'
p795
(lp796
sS'shortname'
p797
S'P'
p798
sS'name'
p799
S'Physical'
p800
sbsS'm'
p801
g0
(g88
g2
Ntp802
Rp803
(dp804
S'boxes'
p805
I4
sS'persist'
p806
I00
sS'checked'
p807
(lp808
sS'shortname'
p809
S'M'
p810
sS'name'
p811
S'Mental'
p812
sbssS'aspects'
p813
(dp814
sS'NPC'
p815
I00
sS'fate'
p816
g0
(g128
g2
Ntp817
Rp818
(dp819
S'fate'
p820
I7
sS'refresh'
p821
I7
sbsS'name'
p822
S'Mike'
p823
sbsS'vermis#nick'
p824
g264
sS'reagle'
p825
g0
(g81
g2
Ntp826
Rp827
(dp828
S'stress'
p829
(dp830
S'p'
p831
g0
(g88
g2
Ntp832
Rp833
(dp834
S'boxes'
p835
I4
sS'persist'
p836
I00
sS'checked'
p837
(lp838
sS'shortname'
p839
S'P'
p840
sS'name'
p841
S'Physical'
p842
sbsS'm'
p843
g0
(g88
g2
Ntp844
Rp845
(dp846
S'boxes'
p847
I3
sS'persist'
p848
I00
sS'checked'
p849
(lp850
sS'shortname'
p851
S'M'
p852
sS'name'
p853
S'Mental'
p854
sbssS'aspects'
p855
(dp856
S'slightly singed wing'
p857
g213
ssS'NPC'
p858
I00
sS'fate'
p859
g0
(g128
g2
Ntp860
Rp861
(dp862
S'fate'
p863
I4
sS'refresh'
p864
I1
sbsS'name'
p865
S'Reagle'
p866
sbsS'mike'
p867
g785
sS'mike#nick'
p868
g785
sS'thenpcs#nick'
p869
g483
sS'rayne'
p870
g180
sS'alan'
p871
g578
sS'nick#nick'
p872
g744
sS'christine'
p873
g442
sS'reagle#nick'
p874
g827
sS'michael'
p875
g785
sS'umbra#nick'
p876
g619
sS'bingo#nick'
p877
g401
sS'med#nick'
p878
g619
sS'clive#nick'
p879
g138
sS'jackson#nick'
p880
g483
ssS'characters'
p881
(lp882
g83
ag524
ag578
ag180
ag785
ag744
ag619
ag483
ag401
ag138
ag442
ag264
ag827
asbsS'order'
p883
g0
(cdfrpgmon2
TurnOrdering
p884
g2
Ntp885
Rp886
(dp887
S'ordering'
p888
(lp889
sS'index'
p890
NsbsS'characters'
p891
(lp892
g83
ag524
ag578
ag180
ag785
ag744
ag619
ag483
ag401
ag138
ag442
ag264
ag827
asb.