ccopy_reg
_reconstructor
p0
(cdfrpgmon2
FATEGAME
p1
c__builtin__
object
p2
Ntp3
Rp4
(dp5
Vrolling
p6
g0
(cdfrpgmon2
PlayerDice
p7
g2
Ntp8
Rp9
(dp10
S'rolls'
p11
(dp12
NI1
sg0
(cdfrpgmon2
Character
p13
g2
Ntp14
Rp15
(dp16
Vstress
p17
(dp18
Vp
p19
g0
(cdfrpgmon2
StressTrack
p20
g2
Ntp21
Rp22
(dp23
Vboxes
p24
I2
sVchecked
p25
(lp26
sVshortname
p27
VP
p28
sVname
p29
VPhysical
p30
sVpersist
p31
I00
sbsVs
p32
g0
(g20
g2
Ntp33
Rp34
(dp35
g24
I2
sg25
(lp36
sg27
VS
p37
sg29
VSocial
p38
sg31
I00
sbsVm
p39
g0
(g20
g2
Ntp40
Rp41
(dp42
g24
I4
sg25
(lp43
sg27
VM
p44
sg29
VMental
p45
sg31
I00
sbssVfate
p46
g0
(cdfrpgmon2
Fate
p47
g2
Ntp48
Rp49
(dp50
g46
I8
sVrefresh
p51
I2
sbsVaspects
p52
(dp53
sg29
VFenrir
p54
sVNPC
p55
I00
sbI1
sg0
(g13
g2
Ntp56
Rp57
(dp58
g17
(dp59
Vp
p60
g0
(g20
g2
Ntp61
Rp62
(dp63
g24
I3
sg25
(lp64
sg27
g28
sg29
g30
sg31
I00
sbsVs
p65
g0
(g20
g2
Ntp66
Rp67
(dp68
g24
I2
sg25
(lp69
sg27
g37
sg29
g38
sg31
I00
sbsVm
p70
g0
(g20
g2
Ntp71
Rp72
(dp73
g24
I3
sg25
(lp74
sg27
g44
sg29
g45
sg31
I00
sbssg46
g0
(g47
g2
Ntp75
Rp76
(dp77
g46
I6
sg51
I6
sbsg52
(dp78
sg29
VHart
p79
sg55
I00
sbI-1
sg0
(g13
g2
Ntp80
Rp81
(dp82
S'stress'
p83
(dp84
S'p'
p85
g0
(g20
g2
Ntp86
Rp87
(dp88
S'boxes'
p89
I2
sS'checked'
p90
(lp91
sS'shortname'
p92
S'P'
p93
sS'name'
p94
S'Physical'
p95
sS'persist'
p96
I00
sbsS's'
p97
g0
(g20
g2
Ntp98
Rp99
(dp100
g89
I2
sg90
(lp101
sg92
S'S'
p102
sg94
S'Social'
p103
sg96
I00
sbsS'm'
p104
g0
(g20
g2
Ntp105
Rp106
(dp107
g89
I2
sg90
(lp108
sg92
S'M'
p109
sg94
S'Mental'
p110
sg96
I00
sbssS'fate'
p111
g0
(g47
g2
Ntp112
Rp113
(dp114
g111
I3
sS'refresh'
p115
I3
sbsS'aspects'
p116
(dp117
sg94
S'Mike'
p118
sS'NPC'
p119
I01
sbI2
ssbsVconfig
p120
(dp121
Vpickle
p122
Vsc.pkl
p123
sVrevisionfile
p124
Vscrevs.yml
p125
sVtitle
p126
VDFRPG Santa Cruz Bot
p127
ssVlookup
p128
g0
(cdfrpgmon2
Lookup
p129
g2
Ntp130
Rp131
(dp132
V_nicks
p133
(dp134
g79
g79
sg118
S'Mike'
p135
sS'Goblin'
p136
S'Hawthorne'
p137
sg54
S'Fen'
p138
sS'Kat'
p139
S'Kat'
p140
sVPatrice
p141
g141
sS'Susan'
p142
S'Fen'
p143
sS'Bot'
p144
S'Dare'
p145
sVHawthorne
p146
S'Hawthorne'
p147
sVDarewolf
p148
S'Dare'
p149
sS'MagicDragon'
p150
S'med'
p151
sS'Jan'
p152
S'Jan'
p153
sS'Sparrows'
p154
S'Kat'
p155
sS'Warden'
p156
S'Warden'
p157
sVPablo
p158
g158
sVCedric
p159
g159
sVCalaca
p160
S'med'
p161
sS'Scarecrow'
p162
S'GiantScarecrow'
p163
sS'testNPC'
p164
S'NPC2'
p165
sVDare
p166
S'Dare'
p167
ssV_aliases
p168
(dp169
Vfenrir#nick
p170
g15
sVhawthorne#nick
p171
g0
(g13
g2
Ntp172
Rp173
(dp174
g17
(dp175
Vp
p176
g0
(g20
g2
Ntp177
Rp178
(dp179
g24
I2
sg25
(lp180
sg27
g28
sg29
g30
sg31
I00
sbsVs
p181
g0
(g20
g2
Ntp182
Rp183
(dp184
g24
I3
sg25
(lp185
sg27
g37
sg29
g38
sg31
I00
sbsVm
p186
g0
(g20
g2
Ntp187
Rp188
(dp189
g24
I4
sg25
(lp190
sg27
g44
sg29
g45
sg31
I00
sbssg46
g0
(g47
g2
Ntp191
Rp192
(dp193
g46
I0
sg51
I1
sbsg52
(dp194
S'burns'
p195
g0
(cdfrpgmon2
Aspect
p196
g2
Ntp197
Rp198
(dp199
S'flag_transformers'
p200
(dp201
S'ConsMild'
p202
((lp203
S'mild'
p204
aI01
tp205
sS'style'
p206
((lp207
S'#'
p208
ag208
aNtp209
sS'fragile'
p210
((lp211
S'f'
p212
aI00
tp213
sS'ConsSev'
p214
((lp215
S'severe'
p216
aI01
tp217
sS'ConsMod'
p218
((lp219
S'moderate'
p220
aI01
tp221
sS'ConsModerate'
p222
((lp223
g220
aI01
tp224
sS'ConsSevere'
p225
((lp226
g216
aI01
tp227
ssS'flags'
p228
(lp229
g220
ag208
asS'name'
p230
S'burns'
p231
sS'persist'
p232
I01
sbssg29
g146
sg55
I00
sbsVpatrice#nick
p233
g0
(g13
g2
Ntp234
Rp235
(dp236
g17
(dp237
Vp
p238
g0
(g20
g2
Ntp239
Rp240
(dp241
g24
I4
sg25
(lp242
sg27
g28
sg29
g30
sg31
I00
sbsVs
p243
g0
(g20
g2
Ntp244
Rp245
(dp246
g24
I2
sg25
(lp247
sg27
g37
sg29
g38
sg31
I00
sbsVm
p248
g0
(g20
g2
Ntp249
Rp250
(dp251
g24
I3
sg25
(lp252
sg27
g44
sg29
g45
sg31
I00
sbssg46
g0
(g47
g2
Ntp253
Rp254
(dp255
g46
I5
sg51
I6
sbsg52
(dp256
sg29
g141
sg55
I00
sbsVdarewolf
p257
g0
(g13
g2
Ntp258
Rp259
(dp260
g17
(dp261
Vp
p262
g0
(g20
g2
Ntp263
Rp264
(dp265
g24
I6
sg25
(lp266
sg27
g28
sg29
g30
sg31
I00
sbsVs
p267
g0
(g20
g2
Ntp268
Rp269
(dp270
g24
I3
sg25
(lp271
sg27
g37
sg29
g38
sg31
I00
sbsVm
p272
g0
(g20
g2
Ntp273
Rp274
(dp275
g24
I3
sg25
(lp276
sg27
g44
sg29
g45
sg31
I00
sbssg46
g0
(g47
g2
Ntp277
Rp278
(dp279
g46
I8
sg51
I1
sbsg52
(dp280
S'mauled'
p281
g0
(g196
g2
Ntp282
Rp283
(dp284
g200
(dp285
g202
((lp286
g204
aI01
tp287
sg206
((lp288
g208
ag208
aNtp289
sg210
((lp290
g212
aI00
tp291
sg214
((lp292
g216
aI01
tp293
sg218
((lp294
g220
aI01
tp295
sg222
((lp296
g220
aI01
tp297
sg225
((lp298
g216
aI01
tp299
ssg228
(lp300
g220
ag208
asg230
S'Mauled'
p301
sg232
I01
sbssg29
g148
sg55
I00
sbsVcedric#nick
p302
g0
(g13
g2
Ntp303
Rp304
(dp305
g17
(dp306
Vp
p307
g0
(g20
g2
Ntp308
Rp309
(dp310
g24
I4
sg25
(lp311
sg27
g28
sg29
g30
sg31
I00
sbsVs
p312
g0
(g20
g2
Ntp313
Rp314
(dp315
g24
I4
sg25
(lp316
sg27
g37
sg29
g38
sg31
I00
sbsVm
p317
g0
(g20
g2
Ntp318
Rp319
(dp320
g24
I2
sg25
(lp321
sg27
g44
sg29
g45
sg31
I00
sbssg46
g0
(g47
g2
Ntp322
Rp323
(dp324
g46
I5
sg51
I1
sbsg52
(dp325
sg29
g159
sg55
I00
sbsVpablo
p326
g0
(g13
g2
Ntp327
Rp328
(dp329
g17
(dp330
Vp
p331
g0
(g20
g2
Ntp332
Rp333
(dp334
g24
I4
sg25
(lp335
sg27
g28
sg29
g30
sg31
I00
sbsVs
p336
g0
(g20
g2
Ntp337
Rp338
(dp339
g24
I3
sg25
(lp340
sg27
g37
sg29
g38
sg31
I00
sbsVm
p341
g0
(g20
g2
Ntp342
Rp343
(dp344
g24
I4
sg25
(lp345
sg27
g44
sg29
g45
sg31
I00
sbssg46
g0
(g47
g2
Ntp346
Rp347
(dp348
g46
I2
sg51
I1
sbsg52
(dp349
sg29
g158
sg55
I00
sbsVhart
p350
g57
sVdare#nick
p351
g0
(g13
g2
Ntp352
Rp353
(dp354
g17
(dp355
Vp
p356
g0
(g20
g2
Ntp357
Rp358
(dp359
g24
I3
sg25
(lp360
sg27
g28
sg29
g30
sg31
I00
sbsVs
p361
g0
(g20
g2
Ntp362
Rp363
(dp364
g24
I4
sg25
(lp365
sg27
g37
sg29
g38
sg31
I00
sbsVm
p366
g0
(g20
g2
Ntp367
Rp368
(dp369
g24
I3
sg25
(lp370
sg27
g44
sg29
g45
sg31
I00
sbssg46
g0
(g47
g2
Ntp371
Rp372
(dp373
g46
I8
sg51
I1
sbsg52
(dp374
g281
g283
ssg29
g166
sg55
I00
sbsS'hawk'
p375
g173
sS'pat'
p376
g235
sVpablo#nick
p377
g328
sS'fen'
p378
g15
sVhart#nick
p379
g57
sS'mike'
p380
g81
sS'ced'
p381
g304
sS'mike#nick'
p382
g81
sVhawthorne
p383
g173
sVdarewolf#nick
p384
g259
sVcedric
p385
g304
sVcalaca
p386
g0
(g13
g2
Ntp387
Rp388
(dp389
g17
(dp390
Vp
p391
g0
(g20
g2
Ntp392
Rp393
(dp394
g24
I8
sg25
(lp395
sg27
g28
sg29
g30
sg31
I00
sbsVs
p396
g0
(g20
g2
Ntp397
Rp398
(dp399
g24
I3
sg25
(lp400
sg27
g37
sg29
g38
sg31
I00
sbsVm
p401
g0
(g20
g2
Ntp402
Rp403
(dp404
g24
I4
sg25
(lp405
sg27
g44
sg29
g45
sg31
I00
sbssg46
g0
(g47
g2
Ntp406
Rp407
(dp408
g46
I1
sg51
I1
sbsg52
(dp409
sg29
g160
sg55
I00
sbsVdare
p410
g353
sVfenrir
p411
g15
sVpatrice
p412
g235
sS'fen#nick'
p413
g15
sS'med#nick'
p414
g15
sVcalaca#nick
p415
g388
ssVcharacters
p416
(lp417
g304
ag328
ag353
ag173
ag235
ag57
ag15
ag388
ag259
ag81
asbsVorder
p418
g0
(cdfrpgmon2
TurnOrdering
p419
g2
Ntp420
Rp421
(dp422
S'ordering'
p423
(lp424
sS'index'
p425
Nsbsg416
(lp426
g304
ag328
ag353
ag173
ag235
ag57
ag15
ag388
ag259
ag81
asb.