ccopy_reg
_reconstructor
p0
(cdfrpgmon2
FATEGAME
p1
c__builtin__
object
p2
Ntp3
Rp4
(dp5
Vrolling
p6
g0
(cdfrpgmon2
PlayerDice
p7
g2
Ntp8
Rp9
(dp10
S'rolls'
p11
(dp12
NI1
sg0
(cdfrpgmon2
Character
p13
g2
Ntp14
Rp15
(dp16
Vstress
p17
(dp18
Vp
p19
g0
(cdfrpgmon2
StressTrack
p20
g2
Ntp21
Rp22
(dp23
Vboxes
p24
I3
sVchecked
p25
(lp26
sVshortname
p27
VP
p28
sVname
p29
VPhysical
p30
sVpersist
p31
I00
sbsVs
p32
g0
(g20
g2
Ntp33
Rp34
(dp35
g24
I2
sg25
(lp36
sg27
VS
p37
sg29
VSocial
p38
sg31
I00
sbsVm
p39
g0
(g20
g2
Ntp40
Rp41
(dp42
g24
I3
sg25
(lp43
sg27
VM
p44
sg29
VMental
p45
sg31
I00
sbssVfate
p46
g0
(cdfrpgmon2
Fate
p47
g2
Ntp48
Rp49
(dp50
g46
I6
sVrefresh
p51
I6
sbsVaspects
p52
(dp53
sg29
VHart
p54
sVNPC
p55
I00
sbI-1
sg0
(g13
g2
Ntp56
Rp57
(dp58
g17
(dp59
Vp
p60
g0
(g20
g2
Ntp61
Rp62
(dp63
g24
I2
sg25
(lp64
sg27
g28
sg29
g30
sg31
I00
sbsVs
p65
g0
(g20
g2
Ntp66
Rp67
(dp68
g24
I2
sg25
(lp69
sg27
g37
sg29
g38
sg31
I00
sbsVm
p70
g0
(g20
g2
Ntp71
Rp72
(dp73
g24
I4
sg25
(lp74
sg27
g44
sg29
g45
sg31
I00
sbssg46
g0
(g47
g2
Ntp75
Rp76
(dp77
g46
I8
sg51
I2
sbsg52
(dp78
sg29
VFenrir
p79
sg55
I00
sbI0
sg0
(g13
g2
Ntp80
Rp81
(dp82
S'stress'
p83
(dp84
S'p'
p85
g0
(g20
g2
Ntp86
Rp87
(dp88
S'boxes'
p89
I2
sS'checked'
p90
(lp91
sS'shortname'
p92
S'P'
p93
sS'name'
p94
S'Physical'
p95
sS'persist'
p96
I00
sbsS's'
p97
g0
(g20
g2
Ntp98
Rp99
(dp100
g89
I2
sg90
(lp101
sg92
S'S'
p102
sg94
S'Social'
p103
sg96
I00
sbsS'm'
p104
g0
(g20
g2
Ntp105
Rp106
(dp107
g89
I2
sg90
(lp108
sg92
S'M'
p109
sg94
S'Mental'
p110
sg96
I00
sbssS'fate'
p111
g0
(g47
g2
Ntp112
Rp113
(dp114
g111
I3
sS'refresh'
p115
I3
sbsS'aspects'
p116
(dp117
sg94
S'Mike'
p118
sS'NPC'
p119
I01
sbI2
sg0
(g13
g2
Ntp120
Rp121
(dp122
S'aspects'
p123
(dp124
sS'stress'
p125
(dp126
S'p'
p127
g0
(g20
g2
Ntp128
Rp129
(dp130
S'boxes'
p131
I2
sS'shortname'
p132
S'P'
p133
sS'checked'
p134
(lp135
sS'name'
p136
S'Physical'
p137
sS'persist'
p138
I00
sbsS's'
p139
g0
(g20
g2
Ntp140
Rp141
(dp142
g131
I2
sg132
S'S'
p143
sg134
(lp144
sg136
S'Social'
p145
sg138
I00
sbsS'm'
p146
g0
(g20
g2
Ntp147
Rp148
(dp149
g131
I2
sg132
S'M'
p150
sg134
(lp151
sg136
S'Mental'
p152
sg138
I00
sbssS'fate'
p153
g0
(g47
g2
Ntp154
Rp155
(dp156
g153
I3
sS'refresh'
p157
I3
sbsg136
S'Jan'
p158
sS'NPC'
p159
I01
sbI1
ssbsVconfig
p160
(dp161
Vpickle
p162
Vsc.pkl
p163
sVrevisionfile
p164
Vscrevs.yml
p165
sVtitle
p166
VDFRPG Santa Cruz Bot
p167
ssVlookup
p168
g0
(cdfrpgmon2
Lookup
p169
g2
Ntp170
Rp171
(dp172
V_nicks
p173
(dp174
VCalaca
p175
S'med'
p176
sg118
S'Mike'
p177
sS'Goblin'
p178
S'Hawthorne'
p179
sg79
S'med'
p180
sS'Kat'
p181
S'Kat'
p182
sVPatrice
p183
g183
sS'Susan'
p184
S'Fen'
p185
sS'Bot'
p186
S'Dare'
p187
sVHawthorne
p188
S'Hawthorne'
p189
sVDarewolf
p190
S'Dare'
p191
sS'Jan'
p192
S'Jan'
p193
sS'testNPC'
p194
S'NPC2'
p195
sS'Sparrows'
p196
S'Kat'
p197
sS'Warden'
p198
S'Warden'
p199
sVPablo
p200
g200
sVCedric
p201
g201
sg54
g54
sS'Scarecrow'
p202
S'GiantScarecrow'
p203
sVDare
p204
S'Dare'
p205
sS'MagicDragon'
p206
S'med'
p207
ssV_aliases
p208
(dp209
Vpablo
p210
g0
(g13
g2
Ntp211
Rp212
(dp213
g17
(dp214
Vp
p215
g0
(g20
g2
Ntp216
Rp217
(dp218
g24
I4
sg25
(lp219
sg27
g28
sg29
g30
sg31
I00
sbsVs
p220
g0
(g20
g2
Ntp221
Rp222
(dp223
g24
I3
sg25
(lp224
sg27
g37
sg29
g38
sg31
I00
sbsVm
p225
g0
(g20
g2
Ntp226
Rp227
(dp228
g24
I4
sg25
(lp229
sg27
g44
sg29
g45
sg31
I00
sbssg46
g0
(g47
g2
Ntp230
Rp231
(dp232
g46
I2
sg51
I1
sbsg52
(dp233
sg29
g200
sg55
I00
sbsVhawthorne#nick
p234
g0
(g13
g2
Ntp235
Rp236
(dp237
g17
(dp238
Vp
p239
g0
(g20
g2
Ntp240
Rp241
(dp242
g24
I2
sg25
(lp243
sg27
g28
sg29
g30
sg31
I00
sbsVs
p244
g0
(g20
g2
Ntp245
Rp246
(dp247
g24
I3
sg25
(lp248
sg27
g37
sg29
g38
sg31
I00
sbsVm
p249
g0
(g20
g2
Ntp250
Rp251
(dp252
g24
I4
sg25
(lp253
sg27
g44
sg29
g45
sg31
I00
sbssg46
g0
(g47
g2
Ntp254
Rp255
(dp256
g46
I0
sg51
I1
sbsg52
(dp257
S'burns'
p258
g0
(cdfrpgmon2
Aspect
p259
g2
Ntp260
Rp261
(dp262
S'flag_transformers'
p263
(dp264
S'ConsMild'
p265
((lp266
S'mild'
p267
aI01
tp268
sS'style'
p269
((lp270
S'#'
p271
ag271
aNtp272
sS'fragile'
p273
((lp274
S'f'
p275
aI00
tp276
sS'ConsSev'
p277
((lp278
S'severe'
p279
aI01
tp280
sS'ConsMod'
p281
((lp282
S'moderate'
p283
aI01
tp284
sS'ConsModerate'
p285
((lp286
g283
aI01
tp287
sS'ConsSevere'
p288
((lp289
g279
aI01
tp290
ssS'flags'
p291
(lp292
g283
ag271
asS'name'
p293
S'burns'
p294
sS'persist'
p295
I01
sbssg29
g188
sg55
I00
sbsS'mike'
p296
g81
sVdarewolf
p297
g0
(g13
g2
Ntp298
Rp299
(dp300
g17
(dp301
Vp
p302
g0
(g20
g2
Ntp303
Rp304
(dp305
g24
I6
sg25
(lp306
sg27
g28
sg29
g30
sg31
I00
sbsVs
p307
g0
(g20
g2
Ntp308
Rp309
(dp310
g24
I3
sg25
(lp311
sg27
g37
sg29
g38
sg31
I00
sbsVm
p312
g0
(g20
g2
Ntp313
Rp314
(dp315
g24
I3
sg25
(lp316
sg27
g44
sg29
g45
sg31
I00
sbssg46
g0
(g47
g2
Ntp317
Rp318
(dp319
g46
I8
sg51
I1
sbsg52
(dp320
sg29
g190
sg55
I00
sbsVcedric#nick
p321
g0
(g13
g2
Ntp322
Rp323
(dp324
g17
(dp325
Vp
p326
g0
(g20
g2
Ntp327
Rp328
(dp329
g24
I4
sg25
(lp330
sg27
g28
sg29
g30
sg31
I00
sbsVs
p331
g0
(g20
g2
Ntp332
Rp333
(dp334
g24
I4
sg25
(lp335
sg27
g37
sg29
g38
sg31
I00
sbsVm
p336
g0
(g20
g2
Ntp337
Rp338
(dp339
g24
I2
sg25
(lp340
sg27
g44
sg29
g45
sg31
I00
sbssg46
g0
(g47
g2
Ntp341
Rp342
(dp343
g46
I5
sg51
I1
sbsg52
(dp344
sg29
g201
sg55
I00
sbsVfenrir#nick
p345
g57
sVhart
p346
g15
sVdare#nick
p347
g0
(g13
g2
Ntp348
Rp349
(dp350
g17
(dp351
Vp
p352
g0
(g20
g2
Ntp353
Rp354
(dp355
g24
I3
sg25
(lp356
sg27
g28
sg29
g30
sg31
I00
sbsVs
p357
g0
(g20
g2
Ntp358
Rp359
(dp360
g24
I4
sg25
(lp361
sg27
g37
sg29
g38
sg31
I00
sbsVm
p362
g0
(g20
g2
Ntp363
Rp364
(dp365
g24
I3
sg25
(lp366
sg27
g44
sg29
g45
sg31
I00
sbssg46
g0
(g47
g2
Ntp367
Rp368
(dp369
g46
I8
sg51
I1
sbsg52
(dp370
sg29
g204
sg55
I00
sbsS'hawk'
p371
g236
sS'pat'
p372
g0
(g13
g2
Ntp373
Rp374
(dp375
g17
(dp376
Vp
p377
g0
(g20
g2
Ntp378
Rp379
(dp380
g24
I4
sg25
(lp381
sg27
g28
sg29
g30
sg31
I00
sbsVs
p382
g0
(g20
g2
Ntp383
Rp384
(dp385
g24
I2
sg25
(lp386
sg27
g37
sg29
g38
sg31
I00
sbsVm
p387
g0
(g20
g2
Ntp388
Rp389
(dp390
g24
I3
sg25
(lp391
sg27
g44
sg29
g45
sg31
I00
sbssg46
g0
(g47
g2
Ntp392
Rp393
(dp394
g46
I5
sg51
I6
sbsg52
(dp395
sg29
g183
sg55
I00
sbsVpablo#nick
p396
g212
sS'fen'
p397
g57
sS'jan#nick'
p398
g121
sS'jan'
p399
g121
sVhart#nick
p400
g15
sVpatrice#nick
p401
g374
sS'ced'
p402
g323
sS'mike#nick'
p403
g81
sVhawthorne
p404
g236
sVdarewolf#nick
p405
g299
sVcedric
p406
g323
sVcalaca
p407
g0
(g13
g2
Ntp408
Rp409
(dp410
g17
(dp411
Vp
p412
g0
(g20
g2
Ntp413
Rp414
(dp415
g24
I8
sg25
(lp416
sg27
g28
sg29
g30
sg31
I00
sbsVs
p417
g0
(g20
g2
Ntp418
Rp419
(dp420
g24
I3
sg25
(lp421
sg27
g37
sg29
g38
sg31
I00
sbsVm
p422
g0
(g20
g2
Ntp423
Rp424
(dp425
g24
I4
sg25
(lp426
sg27
g44
sg29
g45
sg31
I00
sbssg46
g0
(g47
g2
Ntp427
Rp428
(dp429
g46
I1
sg51
I1
sbsg52
(dp430
sg29
g175
sg55
I00
sbsVdare
p431
g349
sVfenrir
p432
g57
sVpatrice
p433
g374
sS'fen#nick'
p434
g57
sVcalaca#nick
p435
g409
ssVcharacters
p436
(lp437
g323
ag212
ag349
ag236
ag374
ag15
ag57
ag409
ag299
ag81
ag121
asbsVorder
p438
g0
(cdfrpgmon2
TurnOrdering
p439
g2
Ntp440
Rp441
(dp442
S'ordering'
p443
(lp444
sS'index'
p445
Nsbsg436
(lp446
g323
ag212
ag349
ag236
ag374
ag15
ag57
ag409
ag299
ag81
ag121
asb.