ccopy_reg
_reconstructor
p0
(cdfrpgmon2
FATEGAME
p1
c__builtin__
object
p2
Ntp3
Rp4
(dp5
Vrolling
p6
g0
(cdfrpgmon2
PlayerDice
p7
g2
Ntp8
Rp9
(dp10
S'rolls'
p11
(dp12
g0
(cdfrpgmon2
Character
p13
g2
Ntp14
Rp15
(dp16
S'stress'
p17
(dp18
S'p'
p19
g0
(cdfrpgmon2
StressTrack
p20
g2
Ntp21
Rp22
(dp23
S'boxes'
p24
I2
sS'checked'
p25
(lp26
sS'shortname'
p27
S'P'
p28
sS'name'
p29
S'Physical'
p30
sS'persist'
p31
I00
sbsS's'
p32
g0
(g20
g2
Ntp33
Rp34
(dp35
g24
I2
sg25
(lp36
sg27
S'S'
p37
sg29
S'Social'
p38
sg31
I00
sbsS'm'
p39
g0
(g20
g2
Ntp40
Rp41
(dp42
g24
I2
sg25
(lp43
sg27
S'M'
p44
sg29
S'Mental'
p45
sg31
I00
sbssS'fate'
p46
g0
(cdfrpgmon2
Fate
p47
g2
Ntp48
Rp49
(dp50
g46
I2
sS'refresh'
p51
I3
sbsS'aspects'
p52
(dp53
S'at our mercy'
p54
g0
(cdfrpgmon2
Aspect
p55
g2
Ntp56
Rp57
(dp58
S'flag_transformers'
p59
(dp60
S'ConsMild'
p61
((lp62
S'mild'
p63
aI01
tp64
sS'style'
p65
((lp66
S'#'
p67
ag67
aNtp68
sS'fragile'
p69
((lp70
S'f'
p71
aI00
tp72
sS'ConsSev'
p73
((lp74
S'severe'
p75
aI01
tp76
sS'ConsMod'
p77
((lp78
S'moderate'
p79
aI01
tp80
sS'ConsModerate'
p81
((lp82
g79
aI01
tp83
sS'ConsSevere'
p84
((lp85
g75
aI01
tp86
ssS'flags'
p87
(lp88
g67
asS'name'
p89
S'at our mercy'
p90
sS'persist'
p91
I00
sbsS'blinded by debris'
p92
g0
(g55
g2
Ntp93
Rp94
(dp95
g59
(dp96
g61
((lp97
g63
aI01
tp98
sg65
((lp99
g67
ag67
aNtp100
sg69
((lp101
g71
aI00
tp102
sg73
((lp103
g75
aI01
tp104
sg77
((lp105
g79
aI01
tp106
sg81
((lp107
g79
aI01
tp108
sg84
((lp109
g75
aI01
tp110
ssg87
(lp111
sg89
S'Blinded by Debris'
p112
sg91
I00
sbsS'no ribs either'
p113
g0
(g55
g2
Ntp114
Rp115
(dp116
g59
(dp117
g61
((lp118
g63
aI01
tp119
sg65
((lp120
g67
ag67
aNtp121
sg69
((lp122
g71
aI00
tp123
sg73
((lp124
g75
aI01
tp125
sg77
((lp126
g79
aI01
tp127
sg81
((lp128
g79
aI01
tp129
sg84
((lp130
g75
aI01
tp131
ssg87
(lp132
S'ConsXTREME'
p133
ag67
asg89
S'No Ribs Either'
p134
sg91
I00
sbsS'rage'
p135
g0
(g55
g2
Ntp136
Rp137
(dp138
g59
(dp139
g61
((lp140
g63
aI01
tp141
sg65
((lp142
g67
ag67
aNtp143
sg69
((lp144
g71
aI00
tp145
sg73
((lp146
g75
aI01
tp147
sg77
((lp148
g79
aI01
tp149
sg81
((lp150
g79
aI01
tp151
sg84
((lp152
g75
aI01
tp153
ssg87
(lp154
sg89
S'RAGE'
p155
sg91
I00
sbsS'exhausted'
p156
g0
(g55
g2
Ntp157
Rp158
(dp159
g59
(dp160
g61
((lp161
g63
aI01
tp162
sg65
((lp163
g67
ag67
aNtp164
sg69
((lp165
g71
aI00
tp166
sg73
((lp167
g75
aI01
tp168
sg77
((lp169
g79
aI01
tp170
sg81
((lp171
g79
aI01
tp172
sg84
((lp173
g75
aI01
tp174
ssg87
(lp175
g79
asg89
S'Exhausted'
p176
sg91
I01
sbsS'pinning shot'
p177
g0
(g55
g2
Ntp178
Rp179
(dp180
g59
(dp181
g61
((lp182
g63
aI01
tp183
sg65
((lp184
g67
ag67
aNtp185
sg69
((lp186
g71
aI00
tp187
sg73
((lp188
g75
aI01
tp189
sg77
((lp190
g79
aI01
tp191
sg81
((lp192
g79
aI01
tp193
sg84
((lp194
g75
aI01
tp195
ssg87
(lp196
g67
asg89
S'pinning shot'
p197
sg91
I00
sbsS'right arm pinned'
p198
g0
(g55
g2
Ntp199
Rp200
(dp201
g59
(dp202
g61
((lp203
g63
aI01
tp204
sg65
((lp205
g67
ag67
aNtp206
sg69
((lp207
g71
aI00
tp208
sg73
((lp209
g75
aI01
tp210
sg77
((lp211
g79
aI01
tp212
sg81
((lp213
g79
aI01
tp214
sg84
((lp215
g75
aI01
tp216
ssg87
(lp217
g67
asg89
S'right arm pinned'
p218
sg91
I00
sbsS'on her bony ass'
p219
g0
(g55
g2
Ntp220
Rp221
(dp222
g59
(dp223
g61
((lp224
g63
aI01
tp225
sg65
((lp226
g67
ag67
aNtp227
sg69
((lp228
g71
aI00
tp229
sg73
((lp230
g75
aI01
tp231
sg77
((lp232
g79
aI01
tp233
sg81
((lp234
g79
aI01
tp235
sg84
((lp236
g75
aI01
tp237
ssg87
(lp238
g67
asg89
S'On Her Bony Ass'
p239
sg91
I00
sbsS'for shame'
p240
g0
(g55
g2
Ntp241
Rp242
(dp243
g59
(dp244
g61
((lp245
g63
aI01
tp246
sg65
((lp247
g67
ag67
aNtp248
sg69
((lp249
g71
aI00
tp250
sg73
((lp251
g75
aI01
tp252
sg77
((lp253
g79
aI01
tp254
sg81
((lp255
g79
aI01
tp256
sg84
((lp257
g75
aI01
tp258
ssg87
(lp259
g67
asg89
S'for shame'
p260
sg91
I00
sbsS'confusing aafterimages dammit!'
p261
g0
(g55
g2
Ntp262
Rp263
(dp264
g59
(dp265
g61
((lp266
g63
aI01
tp267
sg65
((lp268
g67
ag67
aNtp269
sg69
((lp270
g71
aI00
tp271
sg73
((lp272
g75
aI01
tp273
sg77
((lp274
g79
aI01
tp275
sg81
((lp276
g79
aI01
tp277
sg84
((lp278
g75
aI01
tp279
ssg87
(lp280
sg89
S'Confusing AAFTERIMAGES DAMMIT!'
p281
sg91
I00
sbsS'neck exposed'
p282
g0
(g55
g2
Ntp283
Rp284
(dp285
g59
(dp286
g61
((lp287
g63
aI01
tp288
sg65
((lp289
g67
ag67
aNtp290
sg69
((lp291
g71
aI00
tp292
sg73
((lp293
g75
aI01
tp294
sg77
((lp295
g79
aI01
tp296
sg81
((lp297
g79
aI01
tp298
sg84
((lp299
g75
aI01
tp300
ssg87
(lp301
g67
asg89
S'neck exposed'
p302
sg91
I00
sbsS'uneven footing'
p303
g0
(g55
g2
Ntp304
Rp305
(dp306
g59
(dp307
g61
((lp308
g63
aI01
tp309
sg65
((lp310
g67
ag67
aNtp311
sg69
((lp312
g71
aI00
tp313
sg73
((lp314
g75
aI01
tp315
sg77
((lp316
g79
aI01
tp317
sg81
((lp318
g79
aI01
tp319
sg84
((lp320
g75
aI01
tp321
ssg87
(lp322
sg89
S'Uneven Footing'
p323
sg91
I00
sbsS'left arm pinned'
p324
g0
(g55
g2
Ntp325
Rp326
(dp327
g59
(dp328
g61
((lp329
g63
aI01
tp330
sg65
((lp331
g67
ag67
aNtp332
sg69
((lp333
g71
aI00
tp334
sg73
((lp335
g75
aI01
tp336
sg77
((lp337
g79
aI01
tp338
sg81
((lp339
g79
aI01
tp340
sg84
((lp341
g75
aI01
tp342
ssg87
(lp343
g67
asg89
S'left arm pinned'
p344
sg91
I00
sbsS'no flesh'
p345
g0
(g55
g2
Ntp346
Rp347
(dp348
g59
(dp349
g61
((lp350
g63
aI01
tp351
sg65
((lp352
g67
ag67
aNtp353
sg69
((lp354
g71
aI00
tp355
sg73
((lp356
g75
aI01
tp357
sg77
((lp358
g79
aI01
tp359
sg81
((lp360
g79
aI01
tp361
sg84
((lp362
g75
aI01
tp363
ssg87
(lp364
g75
asg89
S'No Flesh'
p365
sg91
I01
sbssg29
S'Demeter'
p366
sS'NPC'
p367
I01
sbI7
sNI2
sg0
(g13
g2
Ntp368
Rp369
(dp370
Vstress
p371
(dp372
Vp
p373
g0
(g20
g2
Ntp374
Rp375
(dp376
Vboxes
p377
I3
sVchecked
p378
(lp379
I1
asVshortname
p380
VP
p381
sVname
p382
VPhysical
p383
sVpersist
p384
I00
sbsVs
p385
g0
(g20
g2
Ntp386
Rp387
(dp388
g377
I3
sg378
(lp389
sg380
VS
p390
sg382
VSocial
p391
sg384
I00
sbsVm
p392
g0
(g20
g2
Ntp393
Rp394
(dp395
g377
I4
sg378
(lp396
I4
aI2
asg380
VM
p397
sg382
VMental
p398
sg384
I00
sbsS'h'
p399
g0
(g20
g2
Ntp400
Rp401
(dp402
S'boxes'
p403
I6
sS'checked'
p404
(lp405
sS'shortname'
p406
S'H'
p407
sS'name'
p408
S'Hunger'
p409
sS'persist'
p410
I00
sbssVfate
p411
g0
(g47
g2
Ntp412
Rp413
(dp414
g411
I1
sVrefresh
p415
I1
sbsVaspects
p416
(dp417
S'nosebleed'
p418
g0
(g55
g2
Ntp419
Rp420
(dp421
S'flag_transformers'
p422
(dp423
S'ConsMild'
p424
((lp425
S'mild'
p426
aI01
tp427
sS'style'
p428
((lp429
S'#'
p430
ag430
aNtp431
sS'fragile'
p432
((lp433
S'f'
p434
aI00
tp435
sS'ConsSev'
p436
((lp437
S'severe'
p438
aI01
tp439
sS'ConsMod'
p440
((lp441
S'moderate'
p442
aI01
tp443
sS'ConsModerate'
p444
((lp445
g442
aI01
tp446
sS'ConsSevere'
p447
((lp448
g438
aI01
tp449
ssS'flags'
p450
(lp451
g426
ag430
asS'name'
p452
S'Nosebleed'
p453
sS'persist'
p454
I01
sbsS'zippo'
p455
g0
(g55
g2
Ntp456
Rp457
(dp458
g422
(dp459
g424
((lp460
g426
aI01
tp461
sg428
((lp462
g430
ag430
aNtp463
sg432
((lp464
g434
aI00
tp465
sg436
((lp466
g438
aI01
tp467
sg440
((lp468
g442
aI01
tp469
sg444
((lp470
g442
aI01
tp471
sg447
((lp472
g438
aI01
tp473
ssg450
(lp474
sg452
S'Zippo'
p475
sg454
I00
sbsS'clear headed and ready to rock'
p476
g0
(g55
g2
Ntp477
Rp478
(dp479
g59
(dp480
g61
((lp481
g63
aI01
tp482
sg65
((lp483
g67
ag67
aNtp484
sg69
((lp485
g71
aI00
tp486
sg73
((lp487
g75
aI01
tp488
sg77
((lp489
g79
aI01
tp490
sg81
((lp491
g79
aI01
tp492
sg84
((lp493
g75
aI01
tp494
ssg87
(lp495
g67
ag67
asg89
S'Clear Headed and Ready to Rock'
p496
sg91
I00
sbsS'rage'
p497
g0
(g55
g2
Ntp498
Rp499
(dp500
g59
(dp501
g61
((lp502
g63
aI01
tp503
sg65
((lp504
g67
ag67
aNtp505
sg69
((lp506
g71
aI00
tp507
sg73
((lp508
g75
aI01
tp509
sg77
((lp510
g79
aI01
tp511
sg81
((lp512
g79
aI01
tp513
sg84
((lp514
g75
aI01
tp515
ssg87
(lp516
g67
asg89
S'RAGE'
p517
sg91
I00
sbssg382
VHawthorne
p518
sVNPC
p519
I00
sbI7
sg0
(g13
g2
Ntp520
Rp521
(dp522
g371
(dp523
Vp
p524
g0
(g20
g2
Ntp525
Rp526
(dp527
g377
I6
sg378
(lp528
I2
aI5
asg380
g381
sg382
g383
sg384
I00
sbsVs
p529
g0
(g20
g2
Ntp530
Rp531
(dp532
g377
I3
sg378
(lp533
sg380
g390
sg382
g391
sg384
I00
sbsVm
p534
g0
(g20
g2
Ntp535
Rp536
(dp537
g377
I3
sg378
(lp538
sg380
g397
sg382
g398
sg384
I00
sbssg411
g0
(g47
g2
Ntp539
Rp540
(dp541
g411
I6
sg415
I1
sbsg416
(dp542
S'scent of the paranormal'
p543
g0
(g55
g2
Ntp544
Rp545
(dp546
g59
(dp547
g61
((lp548
g63
aI01
tp549
sg65
((lp550
g67
ag67
aNtp551
sg69
((lp552
g71
aI00
tp553
sg73
((lp554
g75
aI01
tp555
sg77
((lp556
g79
aI01
tp557
sg81
((lp558
g79
aI01
tp559
sg84
((lp560
g75
aI01
tp561
ssg87
(lp562
sg89
S'Scent of the Paranormal'
p563
sg91
I00
sbsS'ready to pounce'
p564
g0
(g55
g2
Ntp565
Rp566
(dp567
g59
(dp568
g61
((lp569
g63
aI01
tp570
sg65
((lp571
g67
ag67
aNtp572
sg69
((lp573
g71
aI00
tp574
sg73
((lp575
g75
aI01
tp576
sg77
((lp577
g79
aI01
tp578
sg81
((lp579
g79
aI01
tp580
sg84
((lp581
g75
aI01
tp582
ssg87
(lp583
sg89
S'Ready to Pounce'
p584
sg91
I00
sbsS'defensive posture'
p585
g0
(g55
g2
Ntp586
Rp587
(dp588
S'flag_transformers'
p589
(dp590
S'ConsMild'
p591
((lp592
S'mild'
p593
aI01
tp594
sS'style'
p595
((lp596
S'#'
p597
ag597
aNtp598
sS'fragile'
p599
((lp600
S'f'
p601
aI00
tp602
sS'ConsSev'
p603
((lp604
S'severe'
p605
aI01
tp606
sS'ConsMod'
p607
((lp608
S'moderate'
p609
aI01
tp610
sS'ConsModerate'
p611
((lp612
g609
aI01
tp613
sS'ConsSevere'
p614
((lp615
g605
aI01
tp616
ssS'flags'
p617
(lp618
sg29
S'Defensive Posture'
p619
sg31
I00
sbsS'eyes on the swordsman'
p620
g0
(g55
g2
Ntp621
Rp622
(dp623
g59
(dp624
g61
((lp625
g63
aI01
tp626
sg65
((lp627
g67
ag67
aNtp628
sg69
((lp629
g71
aI00
tp630
sg73
((lp631
g75
aI01
tp632
sg77
((lp633
g79
aI01
tp634
sg81
((lp635
g79
aI01
tp636
sg84
((lp637
g75
aI01
tp638
ssg87
(lp639
g67
ag67
asg89
S'Eyes on the Swordsman'
p640
sg91
I00
sbssg382
VDarewolf
p641
sg519
I00
sbI10
sg0
(g13
g2
Ntp642
Rp643
(dp644
g371
(dp645
Vp
p646
g0
(g20
g2
Ntp647
Rp648
(dp649
g377
I8
sg378
(lp650
I1
aI4
aI3
aI6
aI7
asg380
g381
sg382
g383
sg384
I00
sbsVs
p651
g0
(g20
g2
Ntp652
Rp653
(dp654
g377
I3
sg378
(lp655
sg380
g390
sg382
g391
sg384
I00
sbsVm
p656
g0
(g20
g2
Ntp657
Rp658
(dp659
g377
I4
sg378
(lp660
I1
aI2
aI3
aI4
asg380
g397
sg382
g398
sg384
I00
sbssg411
g0
(g47
g2
Ntp661
Rp662
(dp663
g411
I2
sg415
I1
sbsg416
(dp664
S'wrathful power'
p665
g0
(g55
g2
Ntp666
Rp667
(dp668
g422
(dp669
g424
((lp670
g426
aI01
tp671
sg428
((lp672
g430
ag430
aNtp673
sg432
((lp674
g434
aI00
tp675
sg436
((lp676
g438
aI01
tp677
sg440
((lp678
g442
aI01
tp679
sg444
((lp680
g442
aI01
tp681
sg447
((lp682
g438
aI01
tp683
ssg450
(lp684
sg452
S'wrathful power'
p685
sg454
I00
sbsS'empowered'
p686
g0
(g55
g2
Ntp687
Rp688
(dp689
g59
(dp690
g61
((lp691
g63
aI01
tp692
sg65
((lp693
g67
ag67
aNtp694
sg69
((lp695
g71
aI00
tp696
sg73
((lp697
g75
aI01
tp698
sg77
((lp699
g79
aI01
tp700
sg81
((lp701
g79
aI01
tp702
sg84
((lp703
g75
aI01
tp704
ssg87
(lp705
sg89
S'Empowered'
p706
sg91
I00
sbsS'bull headed'
p707
g0
(g55
g2
Ntp708
Rp709
(dp710
g59
(dp711
g61
((lp712
g63
aI01
tp713
sg65
((lp714
g67
ag67
aNtp715
sg69
((lp716
g71
aI00
tp717
sg73
((lp718
g75
aI01
tp719
sg77
((lp720
g79
aI01
tp721
sg81
((lp722
g79
aI01
tp723
sg84
((lp724
g75
aI01
tp725
ssg87
(lp726
g79
ag67
asg89
S'bull headed'
p727
sg91
I01
sbssg382
VCalaca
p728
sg519
I00
sbI3
sg0
(g13
g2
Ntp729
Rp730
(dp731
g371
(dp732
Vp
p733
g0
(g20
g2
Ntp734
Rp735
(dp736
g377
I4
sg378
(lp737
sg380
g381
sg382
g383
sg384
I00
sbsVs
p738
g0
(g20
g2
Ntp739
Rp740
(dp741
g377
I3
sg378
(lp742
sg380
g390
sg382
g391
sg384
I00
sbsVm
p743
g0
(g20
g2
Ntp744
Rp745
(dp746
g377
I4
sg378
(lp747
sg380
g397
sg382
g398
sg384
I00
sbssg411
g0
(g47
g2
Ntp748
Rp749
(dp750
g411
I2
sg415
I1
sbsg416
(dp751
S'bug bait'
p752
g0
(g55
g2
Ntp753
Rp754
(dp755
g422
(dp756
g424
((lp757
g426
aI01
tp758
sg428
((lp759
g430
ag430
aNtp760
sg432
((lp761
g434
aI00
tp762
sg436
((lp763
g438
aI01
tp764
sg440
((lp765
g442
aI01
tp766
sg444
((lp767
g442
aI01
tp768
sg447
((lp769
g438
aI01
tp770
ssg450
(lp771
g430
asg452
S'Bug Bait'
p772
sg454
I00
sbssg382
VPablo
p773
sg519
I00
sbI-4
sg0
(g13
g2
Ntp774
Rp775
(dp776
g371
(dp777
Vp
p778
g0
(g20
g2
Ntp779
Rp780
(dp781
g377
I3
sg378
(lp782
I3
asg380
g381
sg382
g383
sg384
I00
sbsVs
p783
g0
(g20
g2
Ntp784
Rp785
(dp786
g377
I2
sg378
(lp787
sg380
g390
sg382
g391
sg384
I00
sbsVm
p788
g0
(g20
g2
Ntp789
Rp790
(dp791
g377
I3
sg378
(lp792
sg380
g397
sg382
g398
sg384
I00
sbssg411
g0
(g47
g2
Ntp793
Rp794
(dp795
g411
I2
sg415
I6
sbsg416
(dp796
S'watching our backs'
p797
g0
(g55
g2
Ntp798
Rp799
(dp800
g589
(dp801
g591
((lp802
g593
aI01
tp803
sg595
((lp804
g597
ag597
aNtp805
sg599
((lp806
g601
aI00
tp807
sg603
((lp808
g605
aI01
tp809
sg607
((lp810
g609
aI01
tp811
sg611
((lp812
g609
aI01
tp813
sg614
((lp814
g605
aI01
tp815
ssg617
(lp816
sg29
S'watching our backs'
p817
sg31
I00
sbsS'these arrows are bull tipped'
p818
g0
(g55
g2
Ntp819
Rp820
(dp821
g59
(dp822
g61
((lp823
g63
aI01
tp824
sg65
((lp825
g67
ag67
aNtp826
sg69
((lp827
g71
aI00
tp828
sg73
((lp829
g75
aI01
tp830
sg77
((lp831
g79
aI01
tp832
sg81
((lp833
g79
aI01
tp834
sg84
((lp835
g75
aI01
tp836
ssg87
(lp837
sg89
S'these arrows are bull tipped'
p838
sg91
I00
sbssg382
VHart
p839
sg519
I00
sbI7
sg0
(g13
g2
Ntp840
Rp841
(dp842
g17
(dp843
S'p'
p844
g0
(g20
g2
Ntp845
Rp846
(dp847
g24
I2
sg25
(lp848
sg27
S'P'
p849
sg29
g30
sg31
I00
sbsS's'
p850
g0
(g20
g2
Ntp851
Rp852
(dp853
g24
I2
sg25
(lp854
sg27
S'S'
p855
sg29
g38
sg31
I00
sbsS'm'
p856
g0
(g20
g2
Ntp857
Rp858
(dp859
g24
I2
sg25
(lp860
sg27
S'M'
p861
sg29
g45
sg31
I00
sbssg46
g0
(g47
g2
Ntp862
Rp863
(dp864
g46
I2
sg51
I3
sbsg52
(dp865
S'betraying her nature'
p866
g0
(g55
g2
Ntp867
Rp868
(dp869
g59
(dp870
g61
((lp871
g63
aI01
tp872
sg65
((lp873
g67
ag67
aNtp874
sg69
((lp875
g71
aI00
tp876
sg73
((lp877
g75
aI01
tp878
sg77
((lp879
g79
aI01
tp880
sg81
((lp881
g79
aI01
tp882
sg84
((lp883
g75
aI01
tp884
ssg87
(lp885
sg89
S'Betraying Her Nature'
p886
sg91
I00
sbsS'friendly threat'
p887
g0
(g55
g2
Ntp888
Rp889
(dp890
g59
(dp891
g61
((lp892
g63
aI01
tp893
sg65
((lp894
g67
ag67
aNtp895
sg69
((lp896
g71
aI00
tp897
sg73
((lp898
g75
aI01
tp899
sg77
((lp900
g79
aI01
tp901
sg81
((lp902
g79
aI01
tp903
sg84
((lp904
g75
aI01
tp905
ssg87
(lp906
sg89
S'Friendly Threat'
p907
sg91
I00
sbsS'wtf'
p908
g0
(g55
g2
Ntp909
Rp910
(dp911
g59
(dp912
g61
((lp913
g63
aI01
tp914
sg65
((lp915
g67
ag67
aNtp916
sg69
((lp917
g71
aI00
tp918
sg73
((lp919
g75
aI01
tp920
sg77
((lp921
g79
aI01
tp922
sg81
((lp923
g79
aI01
tp924
sg84
((lp925
g75
aI01
tp926
ssg87
(lp927
sg89
S'WTF'
p928
sg91
I00
sbssg29
S'Persephone'
p929
sg367
I01
sbI7
sg0
(g13
g2
Ntp930
Rp931
(dp932
g371
(dp933
Vp
p934
g0
(g20
g2
Ntp935
Rp936
(dp937
g377
I4
sg378
(lp938
I2
aI-2
aI3
asg380
g381
sg382
g383
sg384
I00
sbsVs
p939
g0
(g20
g2
Ntp940
Rp941
(dp942
g377
I2
sg378
(lp943
sg380
g390
sg382
g391
sg384
I00
sbsVm
p944
g0
(g20
g2
Ntp945
Rp946
(dp947
g377
I3
sg378
(lp948
sg380
g397
sg382
g398
sg384
I00
sbssg411
g0
(g47
g2
Ntp949
Rp950
(dp951
g411
I0
sg415
I6
sbsg416
(dp952
S'f-ing branches'
p953
g0
(g55
g2
Ntp954
Rp955
(dp956
g59
(dp957
g61
((lp958
g63
aI01
tp959
sg65
((lp960
g67
ag67
aNtp961
sg69
((lp962
g71
aI00
tp963
sg73
((lp964
g75
aI01
tp965
sg77
((lp966
g79
aI01
tp967
sg81
((lp968
g79
aI01
tp969
sg84
((lp970
g75
aI01
tp971
ssg87
(lp972
S'consmild'
p973
ag67
asg89
S'f-ing branches'
p974
sg91
I00
sbsS'favorite knife'
p975
g0
(g55
g2
Ntp976
Rp977
(dp978
g59
(dp979
g61
((lp980
g63
aI01
tp981
sg65
((lp982
g67
ag67
aNtp983
sg69
((lp984
g71
aI00
tp985
sg73
((lp986
g75
aI01
tp987
sg77
((lp988
g79
aI01
tp989
sg81
((lp990
g79
aI01
tp991
sg84
((lp992
g75
aI01
tp993
ssg87
(lp994
sg89
S'Favorite Knife'
p995
sg91
I00
sbssg382
VPatrice
p996
sg519
I00
sbI16
sg0
(g13
g2
Ntp997
Rp998
(dp999
g17
(dp1000
S'p'
p1001
g0
(g20
g2
Ntp1002
Rp1003
(dp1004
g24
I2
sg25
(lp1005
sg27
S'P'
p1006
sg29
g30
sg31
I00
sbsS's'
p1007
g0
(g20
g2
Ntp1008
Rp1009
(dp1010
g24
I2
sg25
(lp1011
sg27
S'S'
p1012
sg29
g38
sg31
I00
sbsS'm'
p1013
g0
(g20
g2
Ntp1014
Rp1015
(dp1016
g24
I2
sg25
(lp1017
sg27
S'M'
p1018
sg29
g45
sg31
I00
sbssg46
g0
(g47
g2
Ntp1019
Rp1020
(dp1021
g46
I3
sg51
I3
sbsg52
(dp1022
sg29
S'Bugs'
p1023
sg367
I01
sbI4
sg0
(g13
g2
Ntp1024
Rp1025
(dp1026
g17
(dp1027
S'p'
p1028
g0
(g20
g2
Ntp1029
Rp1030
(dp1031
g24
I2
sg25
(lp1032
sg27
S'P'
p1033
sg29
g30
sg31
I00
sbsS's'
p1034
g0
(g20
g2
Ntp1035
Rp1036
(dp1037
g24
I2
sg25
(lp1038
sg27
S'S'
p1039
sg29
g38
sg31
I00
sbsS'm'
p1040
g0
(g20
g2
Ntp1041
Rp1042
(dp1043
g24
I2
sg25
(lp1044
sg27
S'M'
p1045
sg29
g45
sg31
I00
sbssg46
g0
(g47
g2
Ntp1046
Rp1047
(dp1048
g46
I3
sg51
I3
sbsg52
(dp1049
S'more burning'
p1050
g0
(g55
g2
Ntp1051
Rp1052
(dp1053
g422
(dp1054
g424
((lp1055
g426
aI01
tp1056
sg428
((lp1057
g430
ag430
aNtp1058
sg432
((lp1059
g434
aI00
tp1060
sg436
((lp1061
g438
aI01
tp1062
sg440
((lp1063
g442
aI01
tp1064
sg444
((lp1065
g442
aI01
tp1066
sg447
((lp1067
g438
aI01
tp1068
ssg450
(lp1069
g430
asg452
S'More Burning'
p1070
sg454
I00
sbsS'burning'
p1071
g0
(g55
g2
Ntp1072
Rp1073
(dp1074
g422
(dp1075
g424
((lp1076
g426
aI01
tp1077
sg428
((lp1078
g430
ag430
aNtp1079
sg432
((lp1080
g434
aI00
tp1081
sg436
((lp1082
g438
aI01
tp1083
sg440
((lp1084
g442
aI01
tp1085
sg444
((lp1086
g442
aI01
tp1087
sg447
((lp1088
g438
aI01
tp1089
ssg450
(lp1090
sg452
S'Burning'
p1091
sg454
I00
sbssg29
S'Panthropods'
p1092
sg367
I01
sbI6
sg0
(g13
g2
Ntp1093
Rp1094
(dp1095
g371
(dp1096
Vp
p1097
g0
(g20
g2
Ntp1098
Rp1099
(dp1100
g377
I4
sg378
(lp1101
I3
asg380
g381
sg382
g383
sg384
I00
sbsVs
p1102
g0
(g20
g2
Ntp1103
Rp1104
(dp1105
g377
I4
sg378
(lp1106
sg380
g390
sg382
g391
sg384
I00
sbsVm
p1107
g0
(g20
g2
Ntp1108
Rp1109
(dp1110
g377
I2
sg378
(lp1111
sg380
g397
sg382
g398
sg384
I00
sbssg411
g0
(g47
g2
Ntp1112
Rp1113
(dp1114
g411
I0
sg415
I1
sbsg416
(dp1115
S'arrow to the knee'
p1116
g0
(g55
g2
Ntp1117
Rp1118
(dp1119
g589
(dp1120
g591
((lp1121
g593
aI01
tp1122
sg595
((lp1123
g597
ag597
aNtp1124
sg599
((lp1125
g601
aI00
tp1126
sg603
((lp1127
g605
aI01
tp1128
sg607
((lp1129
g609
aI01
tp1130
sg611
((lp1131
g609
aI01
tp1132
sg614
((lp1133
g605
aI01
tp1134
ssg617
(lp1135
g593
asg29
S'arrow to the knee'
p1136
sg31
I01
sbsS'on my word'
p1137
g0
(g55
g2
Ntp1138
Rp1139
(dp1140
g59
(dp1141
g61
((lp1142
g63
aI01
tp1143
sg65
((lp1144
g67
ag67
aNtp1145
sg69
((lp1146
g71
aI00
tp1147
sg73
((lp1148
g75
aI01
tp1149
sg77
((lp1150
g79
aI01
tp1151
sg81
((lp1152
g79
aI01
tp1153
sg84
((lp1154
g75
aI01
tp1155
ssg87
(lp1156
sg89
S'On My Word'
p1157
sg91
I00
sbsS'death walks with the swordsman'
p1158
g0
(g55
g2
Ntp1159
Rp1160
(dp1161
g589
(dp1162
g591
((lp1163
g593
aI01
tp1164
sg595
((lp1165
g597
ag597
aNtp1166
sg599
((lp1167
g601
aI00
tp1168
sg603
((lp1169
g605
aI01
tp1170
sg607
((lp1171
g609
aI01
tp1172
sg611
((lp1173
g609
aI01
tp1174
sg614
((lp1175
g605
aI01
tp1176
ssg617
(lp1177
sg29
S'Death Walks With The Swordsman'
p1178
sg31
I00
sbsS'attack stance'
p1179
g0
(g55
g2
Ntp1180
Rp1181
(dp1182
g59
(dp1183
g61
((lp1184
g63
aI01
tp1185
sg65
((lp1186
g67
ag67
aNtp1187
sg69
((lp1188
g71
aI00
tp1189
sg73
((lp1190
g75
aI01
tp1191
sg77
((lp1192
g79
aI01
tp1193
sg81
((lp1194
g79
aI01
tp1195
sg84
((lp1196
g75
aI01
tp1197
ssg87
(lp1198
sg89
S'Attack Stance'
p1199
sg91
I00
sbssg382
VCedric
p1200
sg519
I00
sbI18
sg0
(g13
g2
Ntp1201
Rp1202
(dp1203
g17
(dp1204
S'p'
p1205
g0
(g20
g2
Ntp1206
Rp1207
(dp1208
g24
I2
sg25
(lp1209
sg27
S'P'
p1210
sg29
g30
sg31
I00
sbsS's'
p1211
g0
(g20
g2
Ntp1212
Rp1213
(dp1214
g24
I2
sg25
(lp1215
sg27
S'S'
p1216
sg29
g38
sg31
I00
sbsS'm'
p1217
g0
(g20
g2
Ntp1218
Rp1219
(dp1220
g24
I2
sg25
(lp1221
sg27
S'M'
p1222
sg29
g45
sg31
I00
sbssg46
g0
(g47
g2
Ntp1223
Rp1224
(dp1225
g46
I0
sg51
I3
sbsg52
(dp1226
S'bleeding'
p1227
g0
(g55
g2
Ntp1228
Rp1229
(dp1230
g422
(dp1231
g424
((lp1232
g426
aI01
tp1233
sg428
((lp1234
g430
ag430
aNtp1235
sg432
((lp1236
g434
aI00
tp1237
sg436
((lp1238
g438
aI01
tp1239
sg440
((lp1240
g442
aI01
tp1241
sg444
((lp1242
g442
aI01
tp1243
sg447
((lp1244
g438
aI01
tp1245
ssg450
(lp1246
g426
ag430
asg452
S'Bleeding'
p1247
sg454
I01
sbsS'arterial spray'
p1248
g0
(g55
g2
Ntp1249
Rp1250
(dp1251
g422
(dp1252
g424
((lp1253
g426
aI01
tp1254
sg428
((lp1255
g430
ag430
aNtp1256
sg432
((lp1257
g434
aI00
tp1258
sg436
((lp1259
g438
aI01
tp1260
sg440
((lp1261
g442
aI01
tp1262
sg444
((lp1263
g442
aI01
tp1264
sg447
((lp1265
g438
aI01
tp1266
ssg450
(lp1267
g442
ag430
asg452
S'Arterial Spray'
p1268
sg454
I01
sbssg29
S'Goblin'
p1269
sg367
I01
sbI4
sg0
(g13
g2
Ntp1270
Rp1271
(dp1272
g17
(dp1273
S'p'
p1274
g0
(g20
g2
Ntp1275
Rp1276
(dp1277
g24
I2
sg25
(lp1278
sg27
S'P'
p1279
sg29
g30
sg31
I00
sbsS's'
p1280
g0
(g20
g2
Ntp1281
Rp1282
(dp1283
g24
I2
sg25
(lp1284
sg27
S'S'
p1285
sg29
g38
sg31
I00
sbsS'm'
p1286
g0
(g20
g2
Ntp1287
Rp1288
(dp1289
g24
I2
sg25
(lp1290
sg27
S'M'
p1291
sg29
g45
sg31
I00
sbssg46
g0
(g47
g2
Ntp1292
Rp1293
(dp1294
g46
I3
sg51
I3
sbsg52
(dp1295
sg29
S'Elf'
p1296
sg367
I01
sbI5
sg0
(g13
g2
Ntp1297
Rp1298
(dp1299
g371
(dp1300
Vp
p1301
g0
(g20
g2
Ntp1302
Rp1303
(dp1304
g377
I4
sg378
(lp1305
sg380
g381
sg382
g383
sg384
I00
sbsVs
p1306
g0
(g20
g2
Ntp1307
Rp1308
(dp1309
g377
I2
sg378
(lp1310
sg380
g390
sg382
g391
sg384
I00
sbsVm
p1311
g0
(g20
g2
Ntp1312
Rp1313
(dp1314
g377
I3
sg378
(lp1315
sg380
g397
sg382
g398
sg384
I00
sbssg411
g0
(g47
g2
Ntp1316
Rp1317
(dp1318
g411
I6
sg415
I11
sbsg416
(dp1319
S'torchlight'
p1320
g0
(g55
g2
Ntp1321
Rp1322
(dp1323
g589
(dp1324
g591
((lp1325
g593
aI01
tp1326
sg595
((lp1327
g597
ag597
aNtp1328
sg599
((lp1329
g601
aI00
tp1330
sg603
((lp1331
g605
aI01
tp1332
sg607
((lp1333
g609
aI01
tp1334
sg611
((lp1335
g609
aI01
tp1336
sg614
((lp1337
g605
aI01
tp1338
ssg617
(lp1339
sg29
S'torchlight'
p1340
sg31
I00
sbsS'friend power'
p1341
g0
(g55
g2
Ntp1342
Rp1343
(dp1344
g59
(dp1345
g61
((lp1346
g63
aI01
tp1347
sg65
((lp1348
g67
ag67
aNtp1349
sg69
((lp1350
g71
aI00
tp1351
sg73
((lp1352
g75
aI01
tp1353
sg77
((lp1354
g79
aI01
tp1355
sg81
((lp1356
g79
aI01
tp1357
sg84
((lp1358
g75
aI01
tp1359
ssg87
(lp1360
sg89
S'Friend Power'
p1361
sg91
I00
sbssg382
VFenrir
p1362
sg519
I00
sbI6
ssbsVconfig
p1363
(dp1364
Vpickle
p1365
Vsc.pkl
p1366
sVrevisionfile
p1367
Vscrevs.yml
p1368
sVtitle
p1369
VDFRPG Santa Cruz Bot
p1370
ssVlookup
p1371
g0
(cdfrpgmon2
Lookup
p1372
g2
Ntp1373
Rp1374
(dp1375
V_nicks
p1376
(dp1377
g366
S'Demeter'
p1378
sS'Peregrine'
p1379
S'Darewolf'
p1380
sS'SCENE'
p1381
S'med'
p1382
sS'Jan'
p1383
S'Jan'
p1384
sg641
S'Darewolf'
p1385
sS'Scarecrow'
p1386
S'GiantScarecrow'
p1387
sS'Leader'
p1388
S'Steven'
p1389
sS'Garou'
p1390
S'Garou'
p1391
sS'Bruisers'
p1392
S'Bruiser'
p1393
sS'Mike'
p1394
S'Keljan'
p1395
sS'Lycan'
p1396
S'Lycan2'
p1397
sS'Susan'
p1398
S'Fen'
p1399
sS'MagicDragon'
p1400
S'med'
p1401
sg518
S'Hawthorne'
p1402
sS'Warden'
p1403
S'Warden'
p1404
sS'Kat'
p1405
S'Kat'
p1406
sg1200
g1200
sg728
S'Pablo'
p1407
sVDare
p1408
S'Dare'
p1409
sS'Puft'
p1410
S'MarshmallowMan'
p1411
sS'Assassins'
p1412
S'Assassins'
p1413
sg1362
S'Fen'
p1414
sg996
g996
sg1296
S'Elf'
p1415
sS'Bruiser'
p1416
S'Van'
p1417
sS'Bot'
p1418
S'Dare'
p1419
sg1023
S'Bugs'
p1420
sS'Clown'
p1421
S'Clown'
p1422
sg773
S'Pablo'
p1423
sS'Galatea'
p1424
S'Galatea'
p1425
sS'Sparrows'
p1426
S'Kat'
p1427
sS'Minotaurs'
p1428
S'Demeter'
p1429
sg1092
S'Panthropods'
p1430
sS'Goblin'
p1431
S'Goblin'
p1432
sS'Teresa'
p1433
S'Teresa'
p1434
sS'Scene'
p1435
S'Ghsdkgb'
p1436
sS'NPC'
p1437
S'Mike'
p1438
sS'Steven'
p1439
S'Steven'
p1440
sg839
g839
sg929
S'Persephone'
p1441
sS'testNPC'
p1442
S'NPC2'
p1443
sS'Minotaur'
p1444
S'Persephone'
p1445
ssV_aliases
p1446
(dp1447
Vpatrice#nick
p1448
g931
sS'demeter#nick'
p1449
g15
sS'ghsdkgb#nick'
p1450
g0
(g13
g2
Ntp1451
Rp1452
(dp1453
S'stress'
p1454
(dp1455
S'p'
p1456
g0
(g20
g2
Ntp1457
Rp1458
(dp1459
S'boxes'
p1460
I2
sS'checked'
p1461
(lp1462
sS'shortname'
p1463
S'P'
p1464
sS'name'
p1465
S'Physical'
p1466
sS'persist'
p1467
I00
sbsS's'
p1468
g0
(g20
g2
Ntp1469
Rp1470
(dp1471
g1460
I2
sg1461
(lp1472
sg1463
S'S'
p1473
sg1465
S'Social'
p1474
sg1467
I00
sbsS'm'
p1475
g0
(g20
g2
Ntp1476
Rp1477
(dp1478
g1460
I2
sg1461
(lp1479
sg1463
S'M'
p1480
sg1465
S'Mental'
p1481
sg1467
I00
sbssS'fate'
p1482
g0
(g47
g2
Ntp1483
Rp1484
(dp1485
g1482
I3
sS'refresh'
p1486
I3
sbsS'aspects'
p1487
(dp1488
S'light'
p1489
g0
(g55
g2
Ntp1490
Rp1491
(dp1492
g589
(dp1493
g591
((lp1494
g593
aI01
tp1495
sg595
((lp1496
g597
ag597
aNtp1497
sg599
((lp1498
g601
aI00
tp1499
sg603
((lp1500
g605
aI01
tp1501
sg607
((lp1502
g609
aI01
tp1503
sg611
((lp1504
g609
aI01
tp1505
sg614
((lp1506
g605
aI01
tp1507
ssg617
(lp1508
sg29
S'Light'
p1509
sg31
I00
sbsS'terrifying wolf howl'
p1510
g0
(g55
g2
Ntp1511
Rp1512
(dp1513
g589
(dp1514
g591
((lp1515
g593
aI01
tp1516
sg595
((lp1517
g597
ag597
aNtp1518
sg599
((lp1519
g601
aI00
tp1520
sg603
((lp1521
g605
aI01
tp1522
sg607
((lp1523
g609
aI01
tp1524
sg611
((lp1525
g609
aI01
tp1526
sg614
((lp1527
g605
aI01
tp1528
ssg617
(lp1529
sg29
S'Terrifying Wolf Howl'
p1530
sg31
I00
sbsS'rotting floors'
p1531
g0
(g55
g2
Ntp1532
Rp1533
(dp1534
g59
(dp1535
g61
((lp1536
g63
aI01
tp1537
sg65
((lp1538
g67
ag67
aNtp1539
sg69
((lp1540
g71
aI00
tp1541
sg73
((lp1542
g75
aI01
tp1543
sg77
((lp1544
g79
aI01
tp1545
sg81
((lp1546
g79
aI01
tp1547
sg84
((lp1548
g75
aI01
tp1549
ssg87
(lp1550
g67
asg89
S'Rotting Floors'
p1551
sg91
I00
sbssg1465
S'Scene'
p1552
sS'NPC'
p1553
I01
sbsVfenrir#nick
p1554
g1298
sVhawthorne#nick
p1555
g369
sS'scene'
p1556
g1452
sVdarewolf
p1557
g521
sVcedric#nick
p1558
g1094
sVpablo
p1559
g730
sVhart
p1560
g775
sS'persephone#nick'
p1561
g841
sVdare#nick
p1562
g0
(g13
g2
Ntp1563
Rp1564
(dp1565
g371
(dp1566
Vp
p1567
g0
(g20
g2
Ntp1568
Rp1569
(dp1570
g377
I3
sg378
(lp1571
sg380
g381
sg382
g383
sg384
I00
sbsVs
p1572
g0
(g20
g2
Ntp1573
Rp1574
(dp1575
g377
I4
sg378
(lp1576
sg380
g390
sg382
g391
sg384
I00
sbsVm
p1577
g0
(g20
g2
Ntp1578
Rp1579
(dp1580
g377
I3
sg378
(lp1581
sg380
g397
sg382
g398
sg384
I00
sbssg411
g0
(g47
g2
Ntp1582
Rp1583
(dp1584
g411
I9
sg415
I1
sbsg416
(dp1585
sg382
g1408
sg519
I00
sbsS'minotaur'
p1586
g0
(g13
g2
Ntp1587
Rp1588
(dp1589
S'stress'
p1590
(dp1591
S'p'
p1592
g0
(g20
g2
Ntp1593
Rp1594
(dp1595
S'boxes'
p1596
I2
sS'checked'
p1597
(lp1598
sS'shortname'
p1599
S'P'
p1600
sg89
S'Physical'
p1601
sg91
I00
sbsS's'
p1602
g0
(g20
g2
Ntp1603
Rp1604
(dp1605
g1596
I2
sg1597
(lp1606
sg1599
S'S'
p1607
sg89
S'Social'
p1608
sg91
I00
sbsS'm'
p1609
g0
(g20
g2
Ntp1610
Rp1611
(dp1612
g1596
I2
sg1597
(lp1613
sg1599
S'M'
p1614
sg89
S'Mental'
p1615
sg91
I00
sbssS'fate'
p1616
g0
(g47
g2
Ntp1617
Rp1618
(dp1619
g1616
I3
sS'refresh'
p1620
I3
sbsS'aspects'
p1621
(dp1622
sg89
g1444
sS'NPC'
p1623
I01
sbsS'hawk'
p1624
g369
sS'pat'
p1625
g931
sVpablo#nick
p1626
g643
sS'demeter'
p1627
g15
sS'fen'
p1628
g1298
sVhart#nick
p1629
g775
sS'mike'
p1630
g0
(g13
g2
Ntp1631
Rp1632
(dp1633
g1590
(dp1634
S'p'
p1635
g0
(g20
g2
Ntp1636
Rp1637
(dp1638
g1596
I2
sg1597
(lp1639
sg1599
S'P'
p1640
sg89
g1601
sg91
I00
sbsS's'
p1641
g0
(g20
g2
Ntp1642
Rp1643
(dp1644
g1596
I2
sg1597
(lp1645
sg1599
S'S'
p1646
sg89
g1608
sg91
I00
sbsS'm'
p1647
g0
(g20
g2
Ntp1648
Rp1649
(dp1650
g1596
I2
sg1597
(lp1651
sg1599
S'M'
p1652
sg89
g1615
sg91
I00
sbssg1616
g0
(g47
g2
Ntp1653
Rp1654
(dp1655
g1616
I3
sg1620
I3
sbsg1621
(dp1656
S'grabbing attention'
p1657
g0
(g55
g2
Ntp1658
Rp1659
(dp1660
g59
(dp1661
g61
((lp1662
g63
aI01
tp1663
sg65
((lp1664
g67
ag67
aNtp1665
sg69
((lp1666
g71
aI00
tp1667
sg73
((lp1668
g75
aI01
tp1669
sg77
((lp1670
g79
aI01
tp1671
sg81
((lp1672
g79
aI01
tp1673
sg84
((lp1674
g75
aI01
tp1675
ssg87
(lp1676
g67
asg89
S'Grabbing Attention'
p1677
sg91
I00
sbsS'zoned out'
p1678
g0
(g55
g2
Ntp1679
Rp1680
(dp1681
g59
(dp1682
g61
((lp1683
g63
aI01
tp1684
sg65
((lp1685
g67
ag67
aNtp1686
sg69
((lp1687
g71
aI00
tp1688
sg73
((lp1689
g75
aI01
tp1690
sg77
((lp1691
g79
aI01
tp1692
sg81
((lp1693
g79
aI01
tp1694
sg84
((lp1695
g75
aI01
tp1696
ssg87
(lp1697
g67
asg89
S'Zoned Out'
p1698
sg91
I00
sbssg89
S'Mike'
p1699
sg1623
I01
sbsS'ced'
p1700
g1094
sS'persephone'
p1701
g841
sVhawthorne
p1702
g369
sVdarewolf#nick
p1703
g521
sS'annpc#nick'
p1704
g15
sVcedric
p1705
g1094
sVcalaca
p1706
g643
sVdare
p1707
g1564
sVfenrir
p1708
g1298
sVpatrice
p1709
g931
sS'keljan#nick'
p1710
g1632
sS'hawthorne_#nick'
p1711
g841
sS'fen#nick'
p1712
g1298
sS'med#nick'
p1713
g1298
sVcalaca#nick
p1714
g643
ssVcharacters
p1715
(lp1716
g1094
ag730
ag1564
ag369
ag931
ag775
ag1298
ag643
ag521
ag1452
ag0
(g13
g2
Ntp1717
Rp1718
(dp1719
g1454
(dp1720
S'p'
p1721
g0
(g20
g2
Ntp1722
Rp1723
(dp1724
g1460
I2
sg1461
(lp1725
sg1463
S'P'
p1726
sg1465
g1466
sg1467
I00
sbsS's'
p1727
g0
(g20
g2
Ntp1728
Rp1729
(dp1730
g1460
I2
sg1461
(lp1731
sg1463
S'S'
p1732
sg1465
g1474
sg1467
I00
sbsS'm'
p1733
g0
(g20
g2
Ntp1734
Rp1735
(dp1736
g1460
I2
sg1461
(lp1737
sg1463
S'M'
p1738
sg1465
g1481
sg1467
I00
sbssg1482
g0
(g47
g2
Ntp1739
Rp1740
(dp1741
g1482
I3
sg1486
I3
sbsg1487
(dp1742
sg1465
S'purge'
p1743
sg1553
I01
sbag0
(g13
g2
Ntp1744
Rp1745
(dp1746
g1454
(dp1747
S'p'
p1748
g0
(g20
g2
Ntp1749
Rp1750
(dp1751
g1460
I2
sg1461
(lp1752
sg1463
S'P'
p1753
sg1465
g1466
sg1467
I00
sbsS's'
p1754
g0
(g20
g2
Ntp1755
Rp1756
(dp1757
g1460
I2
sg1461
(lp1758
sg1463
S'S'
p1759
sg1465
g1474
sg1467
I00
sbsS'm'
p1760
g0
(g20
g2
Ntp1761
Rp1762
(dp1763
g1460
I2
sg1461
(lp1764
sg1463
S'M'
p1765
sg1465
g1481
sg1467
I00
sbssg1482
g0
(g47
g2
Ntp1766
Rp1767
(dp1768
g1482
I3
sg1486
I3
sbsg1487
(dp1769
sg1465
S''
p1770
sg1553
I01
sbag15
ag841
ag1588
ag1632
asbsVorder
p1771
g0
(cdfrpgmon2
TurnOrdering
p1772
g2
Ntp1773
Rp1774
(dp1775
S'ordering'
p1776
(lp1777
(I55
g15
tp1778
a(I53
g1094
tp1779
a(I8
g521
tp1780
a(I5
g775
tp1781
a(I1
g643
tp1782
a(I0
g1298
tp1783
asS'index'
p1784
I1
sbsg1715
(lp1785
g1094
ag730
ag1564
ag369
ag931
ag775
ag1298
ag643
ag521
ag1452
ag1718
ag1745
ag15
ag841
ag1588
ag1632
asb.