ccopy_reg
_reconstructor
p0
(cdfrpgmon2
FATEGAME
p1
c__builtin__
object
p2
Ntp3
Rp4
(dp5
Vrolling
p6
g0
(cdfrpgmon2
PlayerDice
p7
g2
Ntp8
Rp9
(dp10
S'rolls'
p11
(dp12
NI1
sg0
(cdfrpgmon2
Character
p13
g2
Ntp14
Rp15
(dp16
S'stress'
p17
(dp18
S'p'
p19
g0
(cdfrpgmon2
StressTrack
p20
g2
Ntp21
Rp22
(dp23
S'boxes'
p24
I2
sS'checked'
p25
(lp26
sS'shortname'
p27
S'P'
p28
sS'name'
p29
S'Physical'
p30
sS'persist'
p31
I00
sbsS's'
p32
g0
(g20
g2
Ntp33
Rp34
(dp35
g24
I2
sg25
(lp36
sg27
S'S'
p37
sg29
S'Social'
p38
sg31
I00
sbsS'm'
p39
g0
(g20
g2
Ntp40
Rp41
(dp42
g24
I2
sg25
(lp43
sg27
S'M'
p44
sg29
S'Mental'
p45
sg31
I00
sbssS'fate'
p46
g0
(cdfrpgmon2
Fate
p47
g2
Ntp48
Rp49
(dp50
g46
I3
sS'refresh'
p51
I3
sbsS'aspects'
p52
(dp53
sg29
S'Mike'
p54
sS'NPC'
p55
I01
sbI2
sg0
(g13
g2
Ntp56
Rp57
(dp58
Vstress
p59
(dp60
Vp
p61
g0
(g20
g2
Ntp62
Rp63
(dp64
Vboxes
p65
I3
sVchecked
p66
(lp67
sVshortname
p68
VP
p69
sVname
p70
VPhysical
p71
sVpersist
p72
I00
sbsVs
p73
g0
(g20
g2
Ntp74
Rp75
(dp76
g65
I2
sg66
(lp77
sg68
VS
p78
sg70
VSocial
p79
sg72
I00
sbsVm
p80
g0
(g20
g2
Ntp81
Rp82
(dp83
g65
I3
sg66
(lp84
sg68
VM
p85
sg70
VMental
p86
sg72
I00
sbssVfate
p87
g0
(g47
g2
Ntp88
Rp89
(dp90
g87
I6
sVrefresh
p91
I6
sbsVaspects
p92
(dp93
sg70
VHart
p94
sVNPC
p95
I00
sbI-1
sg0
(g13
g2
Ntp96
Rp97
(dp98
g59
(dp99
Vp
p100
g0
(g20
g2
Ntp101
Rp102
(dp103
g65
I2
sg66
(lp104
sg68
g69
sg70
g71
sg72
I00
sbsVs
p105
g0
(g20
g2
Ntp106
Rp107
(dp108
g65
I2
sg66
(lp109
sg68
g78
sg70
g79
sg72
I00
sbsVm
p110
g0
(g20
g2
Ntp111
Rp112
(dp113
g65
I4
sg66
(lp114
sg68
g85
sg70
g86
sg72
I00
sbssg87
g0
(g47
g2
Ntp115
Rp116
(dp117
g87
I8
sg91
I2
sbsg92
(dp118
sg70
VFenrir
p119
sg95
I00
sbI1
ssbsVconfig
p120
(dp121
Vpickle
p122
Vsc.pkl
p123
sVrevisionfile
p124
Vscrevs.yml
p125
sVtitle
p126
VDFRPG Santa Cruz Bot
p127
ssVlookup
p128
g0
(cdfrpgmon2
Lookup
p129
g2
Ntp130
Rp131
(dp132
V_nicks
p133
(dp134
g94
g94
sg54
S'Mike'
p135
sS'Goblin'
p136
S'Hawthorne'
p137
sg119
S'Fen'
p138
sS'Kat'
p139
S'Kat'
p140
sVPatrice
p141
g141
sS'Susan'
p142
S'Fen'
p143
sS'Bot'
p144
S'Dare'
p145
sVHawthorne
p146
S'Hawthorne'
p147
sVDarewolf
p148
S'Dare'
p149
sS'Jan'
p150
S'Jan'
p151
sS'testNPC'
p152
S'NPC2'
p153
sS'Sparrows'
p154
S'Kat'
p155
sS'Warden'
p156
S'Warden'
p157
sVPablo
p158
g158
sVCedric
p159
g159
sVCalaca
p160
S'med'
p161
sS'Scarecrow'
p162
S'GiantScarecrow'
p163
sVDare
p164
S'Dare'
p165
sS'MagicDragon'
p166
S'med'
p167
ssV_aliases
p168
(dp169
Vfenrir#nick
p170
g97
sVhawthorne#nick
p171
g0
(g13
g2
Ntp172
Rp173
(dp174
g59
(dp175
Vp
p176
g0
(g20
g2
Ntp177
Rp178
(dp179
g65
I2
sg66
(lp180
sg68
g69
sg70
g71
sg72
I00
sbsVs
p181
g0
(g20
g2
Ntp182
Rp183
(dp184
g65
I3
sg66
(lp185
sg68
g78
sg70
g79
sg72
I00
sbsVm
p186
g0
(g20
g2
Ntp187
Rp188
(dp189
g65
I4
sg66
(lp190
sg68
g85
sg70
g86
sg72
I00
sbssg87
g0
(g47
g2
Ntp191
Rp192
(dp193
g87
I0
sg91
I1
sbsg92
(dp194
S'burns'
p195
g0
(cdfrpgmon2
Aspect
p196
g2
Ntp197
Rp198
(dp199
S'flag_transformers'
p200
(dp201
S'ConsMild'
p202
((lp203
S'mild'
p204
aI01
tp205
sS'style'
p206
((lp207
S'#'
p208
ag208
aNtp209
sS'fragile'
p210
((lp211
S'f'
p212
aI00
tp213
sS'ConsSev'
p214
((lp215
S'severe'
p216
aI01
tp217
sS'ConsMod'
p218
((lp219
S'moderate'
p220
aI01
tp221
sS'ConsModerate'
p222
((lp223
g220
aI01
tp224
sS'ConsSevere'
p225
((lp226
g216
aI01
tp227
ssS'flags'
p228
(lp229
g220
ag208
asS'name'
p230
S'burns'
p231
sS'persist'
p232
I01
sbssg70
g146
sg95
I00
sbsVpatrice#nick
p233
g0
(g13
g2
Ntp234
Rp235
(dp236
g59
(dp237
Vp
p238
g0
(g20
g2
Ntp239
Rp240
(dp241
g65
I4
sg66
(lp242
sg68
g69
sg70
g71
sg72
I00
sbsVs
p243
g0
(g20
g2
Ntp244
Rp245
(dp246
g65
I2
sg66
(lp247
sg68
g78
sg70
g79
sg72
I00
sbsVm
p248
g0
(g20
g2
Ntp249
Rp250
(dp251
g65
I3
sg66
(lp252
sg68
g85
sg70
g86
sg72
I00
sbssg87
g0
(g47
g2
Ntp253
Rp254
(dp255
g87
I5
sg91
I6
sbsg92
(dp256
sg70
g141
sg95
I00
sbsVdarewolf
p257
g0
(g13
g2
Ntp258
Rp259
(dp260
g59
(dp261
Vp
p262
g0
(g20
g2
Ntp263
Rp264
(dp265
g65
I6
sg66
(lp266
sg68
g69
sg70
g71
sg72
I00
sbsVs
p267
g0
(g20
g2
Ntp268
Rp269
(dp270
g65
I3
sg66
(lp271
sg68
g78
sg70
g79
sg72
I00
sbsVm
p272
g0
(g20
g2
Ntp273
Rp274
(dp275
g65
I3
sg66
(lp276
sg68
g85
sg70
g86
sg72
I00
sbssg87
g0
(g47
g2
Ntp277
Rp278
(dp279
g87
I8
sg91
I1
sbsg92
(dp280
S'mauled'
p281
g0
(g196
g2
Ntp282
Rp283
(dp284
g200
(dp285
g202
((lp286
g204
aI01
tp287
sg206
((lp288
g208
ag208
aNtp289
sg210
((lp290
g212
aI00
tp291
sg214
((lp292
g216
aI01
tp293
sg218
((lp294
g220
aI01
tp295
sg222
((lp296
g220
aI01
tp297
sg225
((lp298
g216
aI01
tp299
ssg228
(lp300
g220
ag208
asg230
S'Mauled'
p301
sg232
I01
sbssg70
g148
sg95
I00
sbsVcedric#nick
p302
g0
(g13
g2
Ntp303
Rp304
(dp305
g59
(dp306
Vp
p307
g0
(g20
g2
Ntp308
Rp309
(dp310
g65
I4
sg66
(lp311
sg68
g69
sg70
g71
sg72
I00
sbsVs
p312
g0
(g20
g2
Ntp313
Rp314
(dp315
g65
I4
sg66
(lp316
sg68
g78
sg70
g79
sg72
I00
sbsVm
p317
g0
(g20
g2
Ntp318
Rp319
(dp320
g65
I2
sg66
(lp321
sg68
g85
sg70
g86
sg72
I00
sbssg87
g0
(g47
g2
Ntp322
Rp323
(dp324
g87
I5
sg91
I1
sbsg92
(dp325
sg70
g159
sg95
I00
sbsVpablo
p326
g0
(g13
g2
Ntp327
Rp328
(dp329
g59
(dp330
Vp
p331
g0
(g20
g2
Ntp332
Rp333
(dp334
g65
I4
sg66
(lp335
sg68
g69
sg70
g71
sg72
I00
sbsVs
p336
g0
(g20
g2
Ntp337
Rp338
(dp339
g65
I3
sg66
(lp340
sg68
g78
sg70
g79
sg72
I00
sbsVm
p341
g0
(g20
g2
Ntp342
Rp343
(dp344
g65
I4
sg66
(lp345
sg68
g85
sg70
g86
sg72
I00
sbssg87
g0
(g47
g2
Ntp346
Rp347
(dp348
g87
I2
sg91
I1
sbsg92
(dp349
sg70
g158
sg95
I00
sbsVhart
p350
g57
sVdare#nick
p351
g0
(g13
g2
Ntp352
Rp353
(dp354
g59
(dp355
Vp
p356
g0
(g20
g2
Ntp357
Rp358
(dp359
g65
I3
sg66
(lp360
sg68
g69
sg70
g71
sg72
I00
sbsVs
p361
g0
(g20
g2
Ntp362
Rp363
(dp364
g65
I4
sg66
(lp365
sg68
g78
sg70
g79
sg72
I00
sbsVm
p366
g0
(g20
g2
Ntp367
Rp368
(dp369
g65
I3
sg66
(lp370
sg68
g85
sg70
g86
sg72
I00
sbssg87
g0
(g47
g2
Ntp371
Rp372
(dp373
g87
I8
sg91
I1
sbsg92
(dp374
g281
g283
ssg70
g164
sg95
I00
sbsS'hawk'
p375
g173
sS'pat'
p376
g235
sVpablo#nick
p377
g328
sS'fen'
p378
g97
sVhart#nick
p379
g57
sS'mike'
p380
g15
sS'ced'
p381
g304
sS'mike#nick'
p382
g15
sVhawthorne
p383
g173
sVdarewolf#nick
p384
g259
sVcedric
p385
g304
sVcalaca
p386
g0
(g13
g2
Ntp387
Rp388
(dp389
g59
(dp390
Vp
p391
g0
(g20
g2
Ntp392
Rp393
(dp394
g65
I8
sg66
(lp395
sg68
g69
sg70
g71
sg72
I00
sbsVs
p396
g0
(g20
g2
Ntp397
Rp398
(dp399
g65
I3
sg66
(lp400
sg68
g78
sg70
g79
sg72
I00
sbsVm
p401
g0
(g20
g2
Ntp402
Rp403
(dp404
g65
I4
sg66
(lp405
sg68
g85
sg70
g86
sg72
I00
sbssg87
g0
(g47
g2
Ntp406
Rp407
(dp408
g87
I1
sg91
I1
sbsg92
(dp409
sg70
g160
sg95
I00
sbsVdare
p410
g353
sVfenrir
p411
g97
sVpatrice
p412
g235
sS'fen#nick'
p413
g97
sS'med#nick'
p414
g97
sVcalaca#nick
p415
g388
ssVcharacters
p416
(lp417
g304
ag328
ag353
ag173
ag235
ag57
ag97
ag388
ag259
ag15
asbsVorder
p418
g0
(cdfrpgmon2
TurnOrdering
p419
g2
Ntp420
Rp421
(dp422
S'ordering'
p423
(lp424
sS'index'
p425
Nsbsg416
(lp426
g304
ag328
ag353
ag173
ag235
ag57
ag97
ag388
ag259
ag15
asb.