ccopy_reg
_reconstructor
p0
(cdfrpgmon2
FATEGAME
p1
c__builtin__
object
p2
Ntp3
Rp4
(dp5
Vrolling
p6
g0
(cdfrpgmon2
PlayerDice
p7
g2
Ntp8
Rp9
(dp10
S'rolls'
p11
(dp12
NI1
sg0
(cdfrpgmon2
Character
p13
g2
Ntp14
Rp15
(dp16
S'stress'
p17
(dp18
S'p'
p19
g0
(cdfrpgmon2
StressTrack
p20
g2
Ntp21
Rp22
(dp23
S'boxes'
p24
I2
sS'checked'
p25
(lp26
sS'shortname'
p27
S'P'
p28
sS'name'
p29
S'Physical'
p30
sS'persist'
p31
I00
sbsS's'
p32
g0
(g20
g2
Ntp33
Rp34
(dp35
g24
I2
sg25
(lp36
sg27
S'S'
p37
sg29
S'Social'
p38
sg31
I00
sbsS'm'
p39
g0
(g20
g2
Ntp40
Rp41
(dp42
g24
I2
sg25
(lp43
sg27
S'M'
p44
sg29
S'Mental'
p45
sg31
I00
sbssS'fate'
p46
g0
(cdfrpgmon2
Fate
p47
g2
Ntp48
Rp49
(dp50
g46
I3
sS'refresh'
p51
I3
sbsS'aspects'
p52
(dp53
sg29
S'Mike'
p54
sS'NPC'
p55
I01
sbI2
sg0
(g13
g2
Ntp56
Rp57
(dp58
Vstress
p59
(dp60
Vp
p61
g0
(g20
g2
Ntp62
Rp63
(dp64
Vboxes
p65
I2
sVchecked
p66
(lp67
sVshortname
p68
VP
p69
sVname
p70
VPhysical
p71
sVpersist
p72
I00
sbsVs
p73
g0
(g20
g2
Ntp74
Rp75
(dp76
g65
I2
sg66
(lp77
sg68
VS
p78
sg70
VSocial
p79
sg72
I00
sbsVm
p80
g0
(g20
g2
Ntp81
Rp82
(dp83
g65
I4
sg66
(lp84
sg68
VM
p85
sg70
VMental
p86
sg72
I00
sbssVfate
p87
g0
(g47
g2
Ntp88
Rp89
(dp90
g87
I8
sVrefresh
p91
I2
sbsVaspects
p92
(dp93
sg70
VFenrir
p94
sVNPC
p95
I00
sbI1
sg0
(g13
g2
Ntp96
Rp97
(dp98
g59
(dp99
Vp
p100
g0
(g20
g2
Ntp101
Rp102
(dp103
g65
I3
sg66
(lp104
sg68
g69
sg70
g71
sg72
I00
sbsVs
p105
g0
(g20
g2
Ntp106
Rp107
(dp108
g65
I2
sg66
(lp109
sg68
g78
sg70
g79
sg72
I00
sbsVm
p110
g0
(g20
g2
Ntp111
Rp112
(dp113
g65
I3
sg66
(lp114
sg68
g85
sg70
g86
sg72
I00
sbssg87
g0
(g47
g2
Ntp115
Rp116
(dp117
g87
I6
sg91
I6
sbsg92
(dp118
sg70
VHart
p119
sg95
I00
sbI-1
ssbsVconfig
p120
(dp121
Vpickle
p122
Vsc.pkl
p123
sVrevisionfile
p124
Vscrevs.yml
p125
sVtitle
p126
VDFRPG Santa Cruz Bot
p127
ssVlookup
p128
g0
(cdfrpgmon2
Lookup
p129
g2
Ntp130
Rp131
(dp132
V_nicks
p133
(dp134
VPablo
p135
g135
sVCalaca
p136
S'med'
p137
sg54
S'Mike'
p138
sS'Goblin'
p139
S'Hawthorne'
p140
sg94
S'Fen'
p141
sVPatrice
p142
g142
sS'Susan'
p143
S'Fen'
p144
sS'Bot'
p145
S'Dare'
p146
sVHawthorne
p147
S'Hawthorne'
p148
sVDarewolf
p149
S'Dare'
p150
sS'Jan'
p151
S'Jan'
p152
sS'testNPC'
p153
S'NPC2'
p154
sS'Sparrows'
p155
S'Kat'
p156
sS'Warden'
p157
S'Warden'
p158
sS'Kat'
p159
S'Kat'
p160
sVCedric
p161
g161
sg119
g119
sS'Scarecrow'
p162
S'GiantScarecrow'
p163
sVDare
p164
S'Dare'
p165
sS'MagicDragon'
p166
S'med'
p167
ssV_aliases
p168
(dp169
Vpablo
p170
g0
(g13
g2
Ntp171
Rp172
(dp173
g59
(dp174
Vp
p175
g0
(g20
g2
Ntp176
Rp177
(dp178
g65
I4
sg66
(lp179
sg68
g69
sg70
g71
sg72
I00
sbsVs
p180
g0
(g20
g2
Ntp181
Rp182
(dp183
g65
I3
sg66
(lp184
sg68
g78
sg70
g79
sg72
I00
sbsVm
p185
g0
(g20
g2
Ntp186
Rp187
(dp188
g65
I4
sg66
(lp189
sg68
g85
sg70
g86
sg72
I00
sbssg87
g0
(g47
g2
Ntp190
Rp191
(dp192
g87
I2
sg91
I1
sbsg92
(dp193
sg70
g135
sg95
I00
sbsVhawthorne#nick
p194
g0
(g13
g2
Ntp195
Rp196
(dp197
g59
(dp198
Vp
p199
g0
(g20
g2
Ntp200
Rp201
(dp202
g65
I2
sg66
(lp203
sg68
g69
sg70
g71
sg72
I00
sbsVs
p204
g0
(g20
g2
Ntp205
Rp206
(dp207
g65
I3
sg66
(lp208
sg68
g78
sg70
g79
sg72
I00
sbsVm
p209
g0
(g20
g2
Ntp210
Rp211
(dp212
g65
I4
sg66
(lp213
sg68
g85
sg70
g86
sg72
I00
sbssg87
g0
(g47
g2
Ntp214
Rp215
(dp216
g87
I0
sg91
I1
sbsg92
(dp217
S'burns'
p218
g0
(cdfrpgmon2
Aspect
p219
g2
Ntp220
Rp221
(dp222
S'flag_transformers'
p223
(dp224
S'ConsMild'
p225
((lp226
S'mild'
p227
aI01
tp228
sS'style'
p229
((lp230
S'#'
p231
ag231
aNtp232
sS'fragile'
p233
((lp234
S'f'
p235
aI00
tp236
sS'ConsSev'
p237
((lp238
S'severe'
p239
aI01
tp240
sS'ConsMod'
p241
((lp242
S'moderate'
p243
aI01
tp244
sS'ConsModerate'
p245
((lp246
g243
aI01
tp247
sS'ConsSevere'
p248
((lp249
g239
aI01
tp250
ssS'flags'
p251
(lp252
g243
ag231
asS'name'
p253
S'burns'
p254
sS'persist'
p255
I01
sbssg70
g147
sg95
I00
sbsS'mike'
p256
g15
sVdarewolf
p257
g0
(g13
g2
Ntp258
Rp259
(dp260
g59
(dp261
Vp
p262
g0
(g20
g2
Ntp263
Rp264
(dp265
g65
I6
sg66
(lp266
sg68
g69
sg70
g71
sg72
I00
sbsVs
p267
g0
(g20
g2
Ntp268
Rp269
(dp270
g65
I3
sg66
(lp271
sg68
g78
sg70
g79
sg72
I00
sbsVm
p272
g0
(g20
g2
Ntp273
Rp274
(dp275
g65
I3
sg66
(lp276
sg68
g85
sg70
g86
sg72
I00
sbssg87
g0
(g47
g2
Ntp277
Rp278
(dp279
g87
I8
sg91
I1
sbsg92
(dp280
S'mauled'
p281
g0
(g219
g2
Ntp282
Rp283
(dp284
g223
(dp285
g225
((lp286
g227
aI01
tp287
sg229
((lp288
g231
ag231
aNtp289
sg233
((lp290
g235
aI00
tp291
sg237
((lp292
g239
aI01
tp293
sg241
((lp294
g243
aI01
tp295
sg245
((lp296
g243
aI01
tp297
sg248
((lp298
g239
aI01
tp299
ssg251
(lp300
g243
ag231
asg253
S'Mauled'
p301
sg255
I01
sbssg70
g149
sg95
I00
sbsVcedric#nick
p302
g0
(g13
g2
Ntp303
Rp304
(dp305
g59
(dp306
Vp
p307
g0
(g20
g2
Ntp308
Rp309
(dp310
g65
I4
sg66
(lp311
sg68
g69
sg70
g71
sg72
I00
sbsVs
p312
g0
(g20
g2
Ntp313
Rp314
(dp315
g65
I4
sg66
(lp316
sg68
g78
sg70
g79
sg72
I00
sbsVm
p317
g0
(g20
g2
Ntp318
Rp319
(dp320
g65
I2
sg66
(lp321
sg68
g85
sg70
g86
sg72
I00
sbssg87
g0
(g47
g2
Ntp322
Rp323
(dp324
g87
I5
sg91
I1
sbsg92
(dp325
sg70
g161
sg95
I00
sbsVfenrir#nick
p326
g57
sVhart
p327
g97
sVdare#nick
p328
g0
(g13
g2
Ntp329
Rp330
(dp331
g59
(dp332
Vp
p333
g0
(g20
g2
Ntp334
Rp335
(dp336
g65
I3
sg66
(lp337
sg68
g69
sg70
g71
sg72
I00
sbsVs
p338
g0
(g20
g2
Ntp339
Rp340
(dp341
g65
I4
sg66
(lp342
sg68
g78
sg70
g79
sg72
I00
sbsVm
p343
g0
(g20
g2
Ntp344
Rp345
(dp346
g65
I3
sg66
(lp347
sg68
g85
sg70
g86
sg72
I00
sbssg87
g0
(g47
g2
Ntp348
Rp349
(dp350
g87
I8
sg91
I1
sbsg92
(dp351
g281
g283
ssg70
g164
sg95
I00
sbsS'hawk'
p352
g196
sS'pat'
p353
g0
(g13
g2
Ntp354
Rp355
(dp356
g59
(dp357
Vp
p358
g0
(g20
g2
Ntp359
Rp360
(dp361
g65
I4
sg66
(lp362
sg68
g69
sg70
g71
sg72
I00
sbsVs
p363
g0
(g20
g2
Ntp364
Rp365
(dp366
g65
I2
sg66
(lp367
sg68
g78
sg70
g79
sg72
I00
sbsVm
p368
g0
(g20
g2
Ntp369
Rp370
(dp371
g65
I3
sg66
(lp372
sg68
g85
sg70
g86
sg72
I00
sbssg87
g0
(g47
g2
Ntp373
Rp374
(dp375
g87
I5
sg91
I6
sbsg92
(dp376
sg70
g142
sg95
I00
sbsVpablo#nick
p377
g172
sS'fen'
p378
g57
sVhart#nick
p379
g97
sVpatrice#nick
p380
g355
sS'ced'
p381
g304
sS'mike#nick'
p382
g15
sVhawthorne
p383
g196
sVdarewolf#nick
p384
g259
sVcedric
p385
g304
sVcalaca
p386
g0
(g13
g2
Ntp387
Rp388
(dp389
g59
(dp390
Vp
p391
g0
(g20
g2
Ntp392
Rp393
(dp394
g65
I8
sg66
(lp395
sg68
g69
sg70
g71
sg72
I00
sbsVs
p396
g0
(g20
g2
Ntp397
Rp398
(dp399
g65
I3
sg66
(lp400
sg68
g78
sg70
g79
sg72
I00
sbsVm
p401
g0
(g20
g2
Ntp402
Rp403
(dp404
g65
I4
sg66
(lp405
sg68
g85
sg70
g86
sg72
I00
sbssg87
g0
(g47
g2
Ntp406
Rp407
(dp408
g87
I1
sg91
I1
sbsg92
(dp409
sg70
g136
sg95
I00
sbsVdare
p410
g330
sVfenrir
p411
g57
sVpatrice
p412
g355
sS'fen#nick'
p413
g57
sS'med#nick'
p414
g57
sVcalaca#nick
p415
g388
ssVcharacters
p416
(lp417
g304
ag172
ag330
ag196
ag355
ag97
ag57
ag388
ag259
ag15
asbsVorder
p418
g0
(cdfrpgmon2
TurnOrdering
p419
g2
Ntp420
Rp421
(dp422
S'ordering'
p423
(lp424
sS'index'
p425
Nsbsg416
(lp426
g304
ag172
ag330
ag196
ag355
ag97
ag57
ag388
ag259
ag15
asb.