ccopy_reg
_reconstructor
p0
(cdfrpgmon2
FATEGAME
p1
c__builtin__
object
p2
Ntp3
Rp4
(dp5
Vrolling
p6
g0
(cdfrpgmon2
PlayerDice
p7
g2
Ntp8
Rp9
(dp10
S'rolls'
p11
(dp12
g0
(cdfrpgmon2
Character
p13
g2
Ntp14
Rp15
(dp16
S'stress'
p17
(dp18
S'p'
p19
g0
(cdfrpgmon2
StressTrack
p20
g2
Ntp21
Rp22
(dp23
S'boxes'
p24
I2
sS'checked'
p25
(lp26
sS'shortname'
p27
S'P'
p28
sS'name'
p29
S'Physical'
p30
sS'persist'
p31
I00
sbsS's'
p32
g0
(g20
g2
Ntp33
Rp34
(dp35
g24
I2
sg25
(lp36
sg27
S'S'
p37
sg29
S'Social'
p38
sg31
I00
sbsS'm'
p39
g0
(g20
g2
Ntp40
Rp41
(dp42
g24
I2
sg25
(lp43
sg27
S'M'
p44
sg29
S'Mental'
p45
sg31
I00
sbssS'fate'
p46
g0
(cdfrpgmon2
Fate
p47
g2
Ntp48
Rp49
(dp50
g46
I3
sS'refresh'
p51
I3
sbsS'aspects'
p52
(dp53
sg29
S'Elf'
p54
sS'NPC'
p55
I01
sbI5
sg0
(g13
g2
Ntp56
Rp57
(dp58
g17
(dp59
S'p'
p60
g0
(g20
g2
Ntp61
Rp62
(dp63
g24
I2
sg25
(lp64
sg27
S'P'
p65
sg29
g30
sg31
I00
sbsS's'
p66
g0
(g20
g2
Ntp67
Rp68
(dp69
g24
I2
sg25
(lp70
sg27
S'S'
p71
sg29
g38
sg31
I00
sbsS'm'
p72
g0
(g20
g2
Ntp73
Rp74
(dp75
g24
I2
sg25
(lp76
sg27
S'M'
p77
sg29
g45
sg31
I00
sbssg46
g0
(g47
g2
Ntp78
Rp79
(dp80
g46
I3
sg51
I3
sbsg52
(dp81
sg29
S'Bugs'
p82
sg55
I01
sbI4
sg0
(g13
g2
Ntp83
Rp84
(dp85
Vstress
p86
(dp87
Vp
p88
g0
(g20
g2
Ntp89
Rp90
(dp91
Vboxes
p92
I4
sVchecked
p93
(lp94
I3
aI4
aI2
asVshortname
p95
VP
p96
sVname
p97
VPhysical
p98
sVpersist
p99
I00
sbsVs
p100
g0
(g20
g2
Ntp101
Rp102
(dp103
g92
I4
sg93
(lp104
sg95
VS
p105
sg97
VSocial
p106
sg99
I00
sbsVm
p107
g0
(g20
g2
Ntp108
Rp109
(dp110
g92
I2
sg93
(lp111
sg95
VM
p112
sg97
VMental
p113
sg99
I00
sbssVfate
p114
g0
(g47
g2
Ntp115
Rp116
(dp117
g114
I3
sVrefresh
p118
I1
sbsVaspects
p119
(dp120
S'arrow to the knee'
p121
g0
(cdfrpgmon2
Aspect
p122
g2
Ntp123
Rp124
(dp125
S'flag_transformers'
p126
(dp127
S'ConsMild'
p128
((lp129
S'mild'
p130
aI01
tp131
sS'style'
p132
((lp133
S'#'
p134
ag134
aNtp135
sS'fragile'
p136
((lp137
S'f'
p138
aI00
tp139
sS'ConsSev'
p140
((lp141
S'severe'
p142
aI01
tp143
sS'ConsMod'
p144
((lp145
S'moderate'
p146
aI01
tp147
sS'ConsModerate'
p148
((lp149
g146
aI01
tp150
sS'ConsSevere'
p151
((lp152
g142
aI01
tp153
ssS'flags'
p154
(lp155
g130
ag134
asg29
S'arrow to the knee'
p156
sg31
I01
sbsS'death walks with the swordsman'
p157
g0
(g122
g2
Ntp158
Rp159
(dp160
g126
(dp161
g128
((lp162
g130
aI01
tp163
sg132
((lp164
g134
ag134
aNtp165
sg136
((lp166
g138
aI00
tp167
sg140
((lp168
g142
aI01
tp169
sg144
((lp170
g146
aI01
tp171
sg148
((lp172
g146
aI01
tp173
sg151
((lp174
g142
aI01
tp175
ssg154
(lp176
sg29
S'Death Walks With The Swordsman'
p177
sg31
I00
sbssg97
VCedric
p178
sVNPC
p179
I00
sbI6
sg0
(g13
g2
Ntp180
Rp181
(dp182
g86
(dp183
Vp
p184
g0
(g20
g2
Ntp185
Rp186
(dp187
g92
I3
sg93
(lp188
I1
asg95
g96
sg97
g98
sg99
I00
sbsVs
p189
g0
(g20
g2
Ntp190
Rp191
(dp192
g92
I3
sg93
(lp193
sg95
g105
sg97
g106
sg99
I00
sbsVm
p194
g0
(g20
g2
Ntp195
Rp196
(dp197
g92
I4
sg93
(lp198
I4
aI2
asg95
g112
sg97
g113
sg99
I00
sbsS'h'
p199
g0
(g20
g2
Ntp200
Rp201
(dp202
S'boxes'
p203
I6
sS'checked'
p204
(lp205
sS'shortname'
p206
S'H'
p207
sS'name'
p208
S'Hunger'
p209
sS'persist'
p210
I00
sbssg114
g0
(g47
g2
Ntp211
Rp212
(dp213
g114
I1
sg118
I1
sbsg119
(dp214
S'nosebleed'
p215
g0
(g122
g2
Ntp216
Rp217
(dp218
S'flag_transformers'
p219
(dp220
S'ConsMild'
p221
((lp222
S'mild'
p223
aI01
tp224
sS'style'
p225
((lp226
S'#'
p227
ag227
aNtp228
sS'fragile'
p229
((lp230
S'f'
p231
aI00
tp232
sS'ConsSev'
p233
((lp234
S'severe'
p235
aI01
tp236
sS'ConsMod'
p237
((lp238
S'moderate'
p239
aI01
tp240
sS'ConsModerate'
p241
((lp242
g239
aI01
tp243
sS'ConsSevere'
p244
((lp245
g235
aI01
tp246
ssS'flags'
p247
(lp248
g223
ag227
asS'name'
p249
S'Nosebleed'
p250
sS'persist'
p251
I01
sbsS'zippo'
p252
g0
(g122
g2
Ntp253
Rp254
(dp255
g219
(dp256
g221
((lp257
g223
aI01
tp258
sg225
((lp259
g227
ag227
aNtp260
sg229
((lp261
g231
aI00
tp262
sg233
((lp263
g235
aI01
tp264
sg237
((lp265
g239
aI01
tp266
sg241
((lp267
g239
aI01
tp268
sg244
((lp269
g235
aI01
tp270
ssg247
(lp271
sg249
S'Zippo'
p272
sg251
I00
sbssg97
VHawthorne
p273
sg179
I00
sbI8
sg0
(g13
g2
Ntp274
Rp275
(dp276
g86
(dp277
Vp
p278
g0
(g20
g2
Ntp279
Rp280
(dp281
g92
I8
sg93
(lp282
I7
asg95
g96
sg97
g98
sg99
I00
sbsVs
p283
g0
(g20
g2
Ntp284
Rp285
(dp286
g92
I3
sg93
(lp287
sg95
g105
sg97
g106
sg99
I00
sbsVm
p288
g0
(g20
g2
Ntp289
Rp290
(dp291
g92
I4
sg93
(lp292
I1
asg95
g112
sg97
g113
sg99
I00
sbssg114
g0
(g47
g2
Ntp293
Rp294
(dp295
g114
I6
sg118
I1
sbsg119
(dp296
S'wrathful power'
p297
g0
(g122
g2
Ntp298
Rp299
(dp300
g219
(dp301
g221
((lp302
g223
aI01
tp303
sg225
((lp304
g227
ag227
aNtp305
sg229
((lp306
g231
aI00
tp307
sg233
((lp308
g235
aI01
tp309
sg237
((lp310
g239
aI01
tp311
sg241
((lp312
g239
aI01
tp313
sg244
((lp314
g235
aI01
tp315
ssg247
(lp316
sg249
S'wrathful power'
p317
sg251
I00
sbssg97
VCalaca
p318
sg179
I00
sbI7
sg0
(g13
g2
Ntp319
Rp320
(dp321
g86
(dp322
Vp
p323
g0
(g20
g2
Ntp324
Rp325
(dp326
g92
I4
sg93
(lp327
I2
asg95
g96
sg97
g98
sg99
I00
sbsVs
p328
g0
(g20
g2
Ntp329
Rp330
(dp331
g92
I2
sg93
(lp332
sg95
g105
sg97
g106
sg99
I00
sbsVm
p333
g0
(g20
g2
Ntp334
Rp335
(dp336
g92
I3
sg93
(lp337
sg95
g112
sg97
g113
sg99
I00
sbssg114
g0
(g47
g2
Ntp338
Rp339
(dp340
g114
I11
sg118
I11
sbsg119
(dp341
S'torchlight'
p342
g0
(g122
g2
Ntp343
Rp344
(dp345
g126
(dp346
g128
((lp347
g130
aI01
tp348
sg132
((lp349
g134
ag134
aNtp350
sg136
((lp351
g138
aI00
tp352
sg140
((lp353
g142
aI01
tp354
sg144
((lp355
g146
aI01
tp356
sg148
((lp357
g146
aI01
tp358
sg151
((lp359
g142
aI01
tp360
ssg154
(lp361
sg29
S'torchlight'
p362
sg31
I00
sbssg97
VFenrir
p363
sg179
I00
sbI1
sg0
(g13
g2
Ntp364
Rp365
(dp366
g86
(dp367
Vp
p368
g0
(g20
g2
Ntp369
Rp370
(dp371
g92
I4
sg93
(lp372
I1
aI3
asg95
g96
sg97
g98
sg99
I00
sbsVs
p373
g0
(g20
g2
Ntp374
Rp375
(dp376
g92
I2
sg93
(lp377
sg95
g105
sg97
g106
sg99
I00
sbsVm
p378
g0
(g20
g2
Ntp379
Rp380
(dp381
g92
I3
sg93
(lp382
sg95
g112
sg97
g113
sg99
I00
sbssg114
g0
(g47
g2
Ntp383
Rp384
(dp385
g114
I4
sg118
I6
sbsg119
(dp386
sg97
VPatrice
p387
sg179
I00
sbI7
sg0
(g13
g2
Ntp388
Rp389
(dp390
g86
(dp391
Vp
p392
g0
(g20
g2
Ntp393
Rp394
(dp395
g92
I4
sg93
(lp396
sg95
g96
sg97
g98
sg99
I00
sbsVs
p397
g0
(g20
g2
Ntp398
Rp399
(dp400
g92
I3
sg93
(lp401
sg95
g105
sg97
g106
sg99
I00
sbsVm
p402
g0
(g20
g2
Ntp403
Rp404
(dp405
g92
I4
sg93
(lp406
sg95
g112
sg97
g113
sg99
I00
sbssg114
g0
(g47
g2
Ntp407
Rp408
(dp409
g114
I2
sg118
I1
sbsg119
(dp410
S'bug bait'
p411
g0
(g122
g2
Ntp412
Rp413
(dp414
g219
(dp415
g221
((lp416
g223
aI01
tp417
sg225
((lp418
g227
ag227
aNtp419
sg229
((lp420
g231
aI00
tp421
sg233
((lp422
g235
aI01
tp423
sg237
((lp424
g239
aI01
tp425
sg241
((lp426
g239
aI01
tp427
sg244
((lp428
g235
aI01
tp429
ssg247
(lp430
g227
asg249
S'Bug Bait'
p431
sg251
I00
sbssg97
VPablo
p432
sg179
I00
sbI-4
sg0
(g13
g2
Ntp433
Rp434
(dp435
g86
(dp436
Vp
p437
g0
(g20
g2
Ntp438
Rp439
(dp440
g92
I3
sg93
(lp441
I3
aI2
asg95
g96
sg97
g98
sg99
I00
sbsVs
p442
g0
(g20
g2
Ntp443
Rp444
(dp445
g92
I2
sg93
(lp446
sg95
g105
sg97
g106
sg99
I00
sbsVm
p447
g0
(g20
g2
Ntp448
Rp449
(dp450
g92
I3
sg93
(lp451
sg95
g112
sg97
g113
sg99
I00
sbssg114
g0
(g47
g2
Ntp452
Rp453
(dp454
g114
I6
sg118
I6
sbsg119
(dp455
S'watching our backs'
p456
g0
(g122
g2
Ntp457
Rp458
(dp459
g126
(dp460
g128
((lp461
g130
aI01
tp462
sg132
((lp463
g134
ag134
aNtp464
sg136
((lp465
g138
aI00
tp466
sg140
((lp467
g142
aI01
tp468
sg144
((lp469
g146
aI01
tp470
sg148
((lp471
g146
aI01
tp472
sg151
((lp473
g142
aI01
tp474
ssg154
(lp475
g134
asg29
S'watching our backs'
p476
sg31
I00
sbssg97
VHart
p477
sg179
I00
sbI6
sg0
(g13
g2
Ntp478
Rp479
(dp480
g17
(dp481
S'p'
p482
g0
(g20
g2
Ntp483
Rp484
(dp485
g24
I2
sg25
(lp486
sg27
S'P'
p487
sg29
g30
sg31
I00
sbsS's'
p488
g0
(g20
g2
Ntp489
Rp490
(dp491
g24
I2
sg25
(lp492
sg27
S'S'
p493
sg29
g38
sg31
I00
sbsS'm'
p494
g0
(g20
g2
Ntp495
Rp496
(dp497
g24
I2
sg25
(lp498
sg27
S'M'
p499
sg29
g45
sg31
I00
sbssg46
g0
(g47
g2
Ntp500
Rp501
(dp502
g46
I3
sg51
I3
sbsg52
(dp503
S'more burning'
p504
g0
(g122
g2
Ntp505
Rp506
(dp507
g219
(dp508
g221
((lp509
g223
aI01
tp510
sg225
((lp511
g227
ag227
aNtp512
sg229
((lp513
g231
aI00
tp514
sg233
((lp515
g235
aI01
tp516
sg237
((lp517
g239
aI01
tp518
sg241
((lp519
g239
aI01
tp520
sg244
((lp521
g235
aI01
tp522
ssg247
(lp523
g227
asg249
S'More Burning'
p524
sg251
I00
sbsS'burning'
p525
g0
(g122
g2
Ntp526
Rp527
(dp528
g219
(dp529
g221
((lp530
g223
aI01
tp531
sg225
((lp532
g227
ag227
aNtp533
sg229
((lp534
g231
aI00
tp535
sg233
((lp536
g235
aI01
tp537
sg237
((lp538
g239
aI01
tp539
sg241
((lp540
g239
aI01
tp541
sg244
((lp542
g235
aI01
tp543
ssg247
(lp544
sg249
S'Burning'
p545
sg251
I00
sbssg29
S'Panthropods'
p546
sg55
I01
sbI6
sNI2
sg0
(g13
g2
Ntp547
Rp548
(dp549
g17
(dp550
S'p'
p551
g0
(g20
g2
Ntp552
Rp553
(dp554
g24
I2
sg25
(lp555
sg27
S'P'
p556
sg29
g30
sg31
I00
sbsS's'
p557
g0
(g20
g2
Ntp558
Rp559
(dp560
g24
I2
sg25
(lp561
sg27
S'S'
p562
sg29
g38
sg31
I00
sbsS'm'
p563
g0
(g20
g2
Ntp564
Rp565
(dp566
g24
I2
sg25
(lp567
sg27
S'M'
p568
sg29
g45
sg31
I00
sbssg46
g0
(g47
g2
Ntp569
Rp570
(dp571
g46
I0
sg51
I3
sbsg52
(dp572
S'bleeding'
p573
g0
(g122
g2
Ntp574
Rp575
(dp576
g219
(dp577
g221
((lp578
g223
aI01
tp579
sg225
((lp580
g227
ag227
aNtp581
sg229
((lp582
g231
aI00
tp583
sg233
((lp584
g235
aI01
tp585
sg237
((lp586
g239
aI01
tp587
sg241
((lp588
g239
aI01
tp589
sg244
((lp590
g235
aI01
tp591
ssg247
(lp592
g223
ag227
asg249
S'Bleeding'
p593
sg251
I01
sbsS'arterial spray'
p594
g0
(g122
g2
Ntp595
Rp596
(dp597
g219
(dp598
g221
((lp599
g223
aI01
tp600
sg225
((lp601
g227
ag227
aNtp602
sg229
((lp603
g231
aI00
tp604
sg233
((lp605
g235
aI01
tp606
sg237
((lp607
g239
aI01
tp608
sg241
((lp609
g239
aI01
tp610
sg244
((lp611
g235
aI01
tp612
ssg247
(lp613
g239
ag227
asg249
S'Arterial Spray'
p614
sg251
I01
sbssg29
S'Goblin'
p615
sg55
I01
sbI4
sg0
(g13
g2
Ntp616
Rp617
(dp618
g86
(dp619
Vp
p620
g0
(g20
g2
Ntp621
Rp622
(dp623
g92
I6
sg93
(lp624
I2
aI5
asg95
g96
sg97
g98
sg99
I00
sbsVs
p625
g0
(g20
g2
Ntp626
Rp627
(dp628
g92
I3
sg93
(lp629
sg95
g105
sg97
g106
sg99
I00
sbsVm
p630
g0
(g20
g2
Ntp631
Rp632
(dp633
g92
I3
sg93
(lp634
sg95
g112
sg97
g113
sg99
I00
sbssg114
g0
(g47
g2
Ntp635
Rp636
(dp637
g114
I10
sg118
I1
sbsg119
(dp638
S'defensive posture'
p639
g0
(g122
g2
Ntp640
Rp641
(dp642
g126
(dp643
g128
((lp644
g130
aI01
tp645
sg132
((lp646
g134
ag134
aNtp647
sg136
((lp648
g138
aI00
tp649
sg140
((lp650
g142
aI01
tp651
sg144
((lp652
g146
aI01
tp653
sg148
((lp654
g146
aI01
tp655
sg151
((lp656
g142
aI01
tp657
ssg154
(lp658
sg29
S'Defensive Posture'
p659
sg31
I00
sbssg97
VDarewolf
p660
sg179
I00
sbI4
ssbsVconfig
p661
(dp662
Vpickle
p663
Vsc.pkl
p664
sVrevisionfile
p665
Vscrevs.yml
p666
sVtitle
p667
VDFRPG Santa Cruz Bot
p668
ssVlookup
p669
g0
(cdfrpgmon2
Lookup
p670
g2
Ntp671
Rp672
(dp673
V_nicks
p674
(dp675
S'Demeter'
p676
S'Demeter'
p677
sS'Peregrine'
p678
S'Darewolf'
p679
sS'SCENE'
p680
S'med'
p681
sS'Jan'
p682
S'Jan'
p683
sg660
S'Darewolf'
p684
sS'Scarecrow'
p685
S'GiantScarecrow'
p686
sS'Leader'
p687
S'Steven'
p688
sS'Garou'
p689
S'Garou'
p690
sS'Bruisers'
p691
S'Bruiser'
p692
sS'Mike'
p693
S'Mike'
p694
sS'Lycan'
p695
S'Lycan2'
p696
sS'Susan'
p697
S'Fen'
p698
sg273
S'Hawthorne'
p699
sS'Warden'
p700
S'Warden'
p701
sS'Kat'
p702
S'Kat'
p703
sg178
g178
sg318
S'Pablo'
p704
sVDare
p705
S'Dare'
p706
sS'Puft'
p707
S'MarshmallowMan'
p708
sS'Assassins'
p709
S'Assassins'
p710
sg363
S'Fen'
p711
sg387
g387
sg54
S'Elf'
p712
sS'Bruiser'
p713
S'Van'
p714
sS'Bot'
p715
S'Dare'
p716
sg82
S'Bugs'
p717
sS'Clown'
p718
S'Clown'
p719
sS'Galatea'
p720
S'Galatea'
p721
sS'Sparrows'
p722
S'Kat'
p723
sS'MagicDragon'
p724
S'med'
p725
sg546
S'Panthropods'
p726
sS'Goblin'
p727
S'Goblin'
p728
sS'Teresa'
p729
S'Teresa'
p730
sS'Scene'
p731
S'Ghsdkgb'
p732
sS'NPC'
p733
S'Mike'
p734
sS'Steven'
p735
S'Steven'
p736
sg477
g477
sS'Persephone'
p737
S'Hawthorne_'
p738
sS'testNPC'
p739
S'NPC2'
p740
sg432
S'Pablo'
p741
ssV_aliases
p742
(dp743
S'demeter#nick'
p744
g0
(g13
g2
Ntp745
Rp746
(dp747
g17
(dp748
S'p'
p749
g0
(g20
g2
Ntp750
Rp751
(dp752
g24
I2
sg25
(lp753
sg27
S'P'
p754
sg29
g30
sg31
I00
sbsS's'
p755
g0
(g20
g2
Ntp756
Rp757
(dp758
g24
I2
sg25
(lp759
sg27
S'S'
p760
sg29
g38
sg31
I00
sbsS'm'
p761
g0
(g20
g2
Ntp762
Rp763
(dp764
g24
I2
sg25
(lp765
sg27
S'M'
p766
sg29
g45
sg31
I00
sbssg46
g0
(g47
g2
Ntp767
Rp768
(dp769
g46
I3
sg51
I3
sbsg52
(dp770
sg29
g676
sg55
I01
sbsS'ghsdkgb#nick'
p771
g0
(g13
g2
Ntp772
Rp773
(dp774
S'stress'
p775
(dp776
S'p'
p777
g0
(g20
g2
Ntp778
Rp779
(dp780
S'boxes'
p781
I2
sS'checked'
p782
(lp783
sS'shortname'
p784
S'P'
p785
sS'name'
p786
S'Physical'
p787
sS'persist'
p788
I00
sbsS's'
p789
g0
(g20
g2
Ntp790
Rp791
(dp792
g781
I2
sg782
(lp793
sg784
S'S'
p794
sg786
S'Social'
p795
sg788
I00
sbsS'm'
p796
g0
(g20
g2
Ntp797
Rp798
(dp799
g781
I2
sg782
(lp800
sg784
S'M'
p801
sg786
S'Mental'
p802
sg788
I00
sbssS'fate'
p803
g0
(g47
g2
Ntp804
Rp805
(dp806
g803
I3
sS'refresh'
p807
I3
sbsS'aspects'
p808
(dp809
S'light'
p810
g0
(g122
g2
Ntp811
Rp812
(dp813
g126
(dp814
g128
((lp815
g130
aI01
tp816
sg132
((lp817
g134
ag134
aNtp818
sg136
((lp819
g138
aI00
tp820
sg140
((lp821
g142
aI01
tp822
sg144
((lp823
g146
aI01
tp824
sg148
((lp825
g146
aI01
tp826
sg151
((lp827
g142
aI01
tp828
ssg154
(lp829
sg29
S'Light'
p830
sg31
I00
sbsS'terrifying wolf howl'
p831
g0
(g122
g2
Ntp832
Rp833
(dp834
g126
(dp835
g128
((lp836
g130
aI01
tp837
sg132
((lp838
g134
ag134
aNtp839
sg136
((lp840
g138
aI00
tp841
sg140
((lp842
g142
aI01
tp843
sg144
((lp844
g146
aI01
tp845
sg148
((lp846
g146
aI01
tp847
sg151
((lp848
g142
aI01
tp849
ssg154
(lp850
sg29
S'Terrifying Wolf Howl'
p851
sg31
I00
sbssg786
S'Scene'
p852
sS'NPC'
p853
I01
sbsVfenrir#nick
p854
g320
sVhawthorne#nick
p855
g181
sS'scene'
p856
g773
sVdarewolf
p857
g617
sVcedric#nick
p858
g84
sVpablo
p859
g389
sVhart
p860
g434
sVdare#nick
p861
g0
(g13
g2
Ntp862
Rp863
(dp864
g86
(dp865
Vp
p866
g0
(g20
g2
Ntp867
Rp868
(dp869
g92
I3
sg93
(lp870
sg95
g96
sg97
g98
sg99
I00
sbsVs
p871
g0
(g20
g2
Ntp872
Rp873
(dp874
g92
I4
sg93
(lp875
sg95
g105
sg97
g106
sg99
I00
sbsVm
p876
g0
(g20
g2
Ntp877
Rp878
(dp879
g92
I3
sg93
(lp880
sg95
g112
sg97
g113
sg99
I00
sbssg114
g0
(g47
g2
Ntp881
Rp882
(dp883
g114
I9
sg118
I1
sbsg119
(dp884
sg97
g705
sg179
I00
sbsS'hawk'
p885
g181
sS'pat'
p886
g365
sVpablo#nick
p887
g275
sS'demeter'
p888
g746
sS'fen'
p889
g320
sVhart#nick
p890
g434
sS'npc2#nick'
p891
g479
sVpatrice#nick
p892
g365
sS'ced'
p893
g84
sS'persephone'
p894
g0
(g13
g2
Ntp895
Rp896
(dp897
g17
(dp898
S'p'
p899
g0
(g20
g2
Ntp900
Rp901
(dp902
g24
I2
sg25
(lp903
sg27
S'P'
p904
sg29
g30
sg31
I00
sbsS's'
p905
g0
(g20
g2
Ntp906
Rp907
(dp908
g24
I2
sg25
(lp909
sg27
S'S'
p910
sg29
g38
sg31
I00
sbsS'm'
p911
g0
(g20
g2
Ntp912
Rp913
(dp914
g24
I2
sg25
(lp915
sg27
S'M'
p916
sg29
g45
sg31
I00
sbssg46
g0
(g47
g2
Ntp917
Rp918
(dp919
g46
I3
sg51
I3
sbsg52
(dp920
sg29
g737
sg55
I01
sbsVhawthorne
p921
g181
sVdarewolf#nick
p922
g617
sS'annpc#nick'
p923
g746
sVcedric
p924
g84
sVcalaca
p925
g275
sS'goblin#nick'
p926
g548
sVdare
p927
g863
sS'pantropods#nick'
p928
g479
sVfenrir
p929
g320
sVpatrice
p930
g365
sS'panthropods#nick'
p931
g479
sS'goblin'
p932
g548
sS'fen#nick'
p933
g320
sVcalaca#nick
p934
g275
sS'hawthorne_#nick'
p935
g896
sS'panthropods'
p936
g479
ssVcharacters
p937
(lp938
g84
ag389
ag863
ag181
ag365
ag434
ag320
ag275
ag617
ag773
ag0
(g13
g2
Ntp939
Rp940
(dp941
g775
(dp942
S'p'
p943
g0
(g20
g2
Ntp944
Rp945
(dp946
g781
I2
sg782
(lp947
sg784
S'P'
p948
sg786
g787
sg788
I00
sbsS's'
p949
g0
(g20
g2
Ntp950
Rp951
(dp952
g781
I2
sg782
(lp953
sg784
S'S'
p954
sg786
g795
sg788
I00
sbsS'm'
p955
g0
(g20
g2
Ntp956
Rp957
(dp958
g781
I2
sg782
(lp959
sg784
S'M'
p960
sg786
g802
sg788
I00
sbssg803
g0
(g47
g2
Ntp961
Rp962
(dp963
g803
I3
sg807
I3
sbsg808
(dp964
sg786
S'purge'
p965
sg853
I01
sbag0
(g13
g2
Ntp966
Rp967
(dp968
g775
(dp969
S'p'
p970
g0
(g20
g2
Ntp971
Rp972
(dp973
g781
I2
sg782
(lp974
sg784
S'P'
p975
sg786
g787
sg788
I00
sbsS's'
p976
g0
(g20
g2
Ntp977
Rp978
(dp979
g781
I2
sg782
(lp980
sg784
S'S'
p981
sg786
g795
sg788
I00
sbsS'm'
p982
g0
(g20
g2
Ntp983
Rp984
(dp985
g781
I2
sg782
(lp986
sg784
S'M'
p987
sg786
g802
sg788
I00
sbssg803
g0
(g47
g2
Ntp988
Rp989
(dp990
g803
I3
sg807
I3
sbsg808
(dp991
sg786
S''
p992
sg853
I01
sbag746
ag896
ag548
ag479
asbsVorder
p993
g0
(cdfrpgmon2
TurnOrdering
p994
g2
Ntp995
Rp996
(dp997
S'ordering'
p998
(lp999
(I90
g84
tp1000
a(I8
g617
tp1001
a(I5
g434
tp1002
a(I4
g548
tp1003
a(I2
g181
tp1004
a(I1
g275
tp1005
a(I0
g320
tp1006
a(I0
g365
tp1007
asS'index'
p1008
I2
sbsg937
(lp1009
g84
ag389
ag863
ag181
ag365
ag434
ag320
ag275
ag617
ag773
ag940
ag967
ag746
ag896
ag548
ag479
asb.