ccopy_reg
_reconstructor
p0
(cdfrpgmon2
FATEGAME
p1
c__builtin__
object
p2
Ntp3
Rp4
(dp5
Vrolling
p6
g0
(cdfrpgmon2
PlayerDice
p7
g2
Ntp8
Rp9
(dp10
S'rolls'
p11
(dp12
g0
(cdfrpgmon2
Character
p13
g2
Ntp14
Rp15
(dp16
Vstress
p17
(dp18
Vp
p19
g0
(cdfrpgmon2
StressTrack
p20
g2
Ntp21
Rp22
(dp23
Vboxes
p24
I6
sVchecked
p25
(lp26
I2
aI5
asVshortname
p27
VP
p28
sVname
p29
VPhysical
p30
sVpersist
p31
I00
sbsVs
p32
g0
(g20
g2
Ntp33
Rp34
(dp35
g24
I3
sg25
(lp36
sg27
VS
p37
sg29
VSocial
p38
sg31
I00
sbsVm
p39
g0
(g20
g2
Ntp40
Rp41
(dp42
g24
I3
sg25
(lp43
sg27
VM
p44
sg29
VMental
p45
sg31
I00
sbssVfate
p46
g0
(cdfrpgmon2
Fate
p47
g2
Ntp48
Rp49
(dp50
g46
I6
sVrefresh
p51
I1
sbsVaspects
p52
(dp53
S'scent of the paranormal'
p54
g0
(cdfrpgmon2
Aspect
p55
g2
Ntp56
Rp57
(dp58
S'flag_transformers'
p59
(dp60
S'ConsMild'
p61
((lp62
S'mild'
p63
aI01
tp64
sS'style'
p65
((lp66
S'#'
p67
ag67
aNtp68
sS'fragile'
p69
((lp70
S'f'
p71
aI00
tp72
sS'ConsSev'
p73
((lp74
S'severe'
p75
aI01
tp76
sS'ConsMod'
p77
((lp78
S'moderate'
p79
aI01
tp80
sS'ConsModerate'
p81
((lp82
g79
aI01
tp83
sS'ConsSevere'
p84
((lp85
g75
aI01
tp86
ssS'flags'
p87
(lp88
sS'name'
p89
S'Scent of the Paranormal'
p90
sS'persist'
p91
I00
sbsS'ready to pounce'
p92
g0
(g55
g2
Ntp93
Rp94
(dp95
g59
(dp96
g61
((lp97
g63
aI01
tp98
sg65
((lp99
g67
ag67
aNtp100
sg69
((lp101
g71
aI00
tp102
sg73
((lp103
g75
aI01
tp104
sg77
((lp105
g79
aI01
tp106
sg81
((lp107
g79
aI01
tp108
sg84
((lp109
g75
aI01
tp110
ssg87
(lp111
sg89
S'Ready to Pounce'
p112
sg91
I00
sbsS'defensive posture'
p113
g0
(g55
g2
Ntp114
Rp115
(dp116
S'flag_transformers'
p117
(dp118
S'ConsMild'
p119
((lp120
S'mild'
p121
aI01
tp122
sS'style'
p123
((lp124
S'#'
p125
ag125
aNtp126
sS'fragile'
p127
((lp128
S'f'
p129
aI00
tp130
sS'ConsSev'
p131
((lp132
S'severe'
p133
aI01
tp134
sS'ConsMod'
p135
((lp136
S'moderate'
p137
aI01
tp138
sS'ConsModerate'
p139
((lp140
g137
aI01
tp141
sS'ConsSevere'
p142
((lp143
g133
aI01
tp144
ssS'flags'
p145
(lp146
sS'name'
p147
S'Defensive Posture'
p148
sS'persist'
p149
I00
sbsS'eyes on the swordsman'
p150
g0
(g55
g2
Ntp151
Rp152
(dp153
g59
(dp154
g61
((lp155
g63
aI01
tp156
sg65
((lp157
g67
ag67
aNtp158
sg69
((lp159
g71
aI00
tp160
sg73
((lp161
g75
aI01
tp162
sg77
((lp163
g79
aI01
tp164
sg81
((lp165
g79
aI01
tp166
sg84
((lp167
g75
aI01
tp168
ssg87
(lp169
g67
ag67
asg89
S'Eyes on the Swordsman'
p170
sg91
I00
sbssg29
VDarewolf
p171
sVNPC
p172
I00
sbI10
sg0
(g13
g2
Ntp173
Rp174
(dp175
g17
(dp176
Vp
p177
g0
(g20
g2
Ntp178
Rp179
(dp180
g24
I4
sg25
(lp181
I3
asg27
g28
sg29
g30
sg31
I00
sbsVs
p182
g0
(g20
g2
Ntp183
Rp184
(dp185
g24
I4
sg25
(lp186
sg27
g37
sg29
g38
sg31
I00
sbsVm
p187
g0
(g20
g2
Ntp188
Rp189
(dp190
g24
I2
sg25
(lp191
sg27
g44
sg29
g45
sg31
I00
sbssg46
g0
(g47
g2
Ntp192
Rp193
(dp194
g46
I0
sg51
I1
sbsg52
(dp195
S'arrow to the knee'
p196
g0
(g55
g2
Ntp197
Rp198
(dp199
g117
(dp200
g119
((lp201
g121
aI01
tp202
sg123
((lp203
g125
ag125
aNtp204
sg127
((lp205
g129
aI00
tp206
sg131
((lp207
g133
aI01
tp208
sg135
((lp209
g137
aI01
tp210
sg139
((lp211
g137
aI01
tp212
sg142
((lp213
g133
aI01
tp214
ssg145
(lp215
g121
asg147
S'arrow to the knee'
p216
sg149
I01
sbsS'on my word'
p217
g0
(g55
g2
Ntp218
Rp219
(dp220
g59
(dp221
g61
((lp222
g63
aI01
tp223
sg65
((lp224
g67
ag67
aNtp225
sg69
((lp226
g71
aI00
tp227
sg73
((lp228
g75
aI01
tp229
sg77
((lp230
g79
aI01
tp231
sg81
((lp232
g79
aI01
tp233
sg84
((lp234
g75
aI01
tp235
ssg87
(lp236
sg89
S'On My Word'
p237
sg91
I00
sbsS'death walks with the swordsman'
p238
g0
(g55
g2
Ntp239
Rp240
(dp241
g117
(dp242
g119
((lp243
g121
aI01
tp244
sg123
((lp245
g125
ag125
aNtp246
sg127
((lp247
g129
aI00
tp248
sg131
((lp249
g133
aI01
tp250
sg135
((lp251
g137
aI01
tp252
sg139
((lp253
g137
aI01
tp254
sg142
((lp255
g133
aI01
tp256
ssg145
(lp257
sg147
S'Death Walks With The Swordsman'
p258
sg149
I00
sbsS'attack stance'
p259
g0
(g55
g2
Ntp260
Rp261
(dp262
g59
(dp263
g61
((lp264
g63
aI01
tp265
sg65
((lp266
g67
ag67
aNtp267
sg69
((lp268
g71
aI00
tp269
sg73
((lp270
g75
aI01
tp271
sg77
((lp272
g79
aI01
tp273
sg81
((lp274
g79
aI01
tp275
sg84
((lp276
g75
aI01
tp277
ssg87
(lp278
sg89
S'Attack Stance'
p279
sg91
I00
sbssg29
VCedric
p280
sg172
I00
sbI18
sg0
(g13
g2
Ntp281
Rp282
(dp283
S'stress'
p284
(dp285
S'p'
p286
g0
(g20
g2
Ntp287
Rp288
(dp289
S'boxes'
p290
I2
sS'checked'
p291
(lp292
sS'shortname'
p293
S'P'
p294
sg147
S'Physical'
p295
sg149
I00
sbsS's'
p296
g0
(g20
g2
Ntp297
Rp298
(dp299
g290
I2
sg291
(lp300
sg293
S'S'
p301
sg147
S'Social'
p302
sg149
I00
sbsS'm'
p303
g0
(g20
g2
Ntp304
Rp305
(dp306
g290
I2
sg291
(lp307
sg293
S'M'
p308
sg147
S'Mental'
p309
sg149
I00
sbssS'fate'
p310
g0
(g47
g2
Ntp311
Rp312
(dp313
g310
I3
sS'refresh'
p314
I3
sbsS'aspects'
p315
(dp316
sg147
S'Bugs'
p317
sS'NPC'
p318
I01
sbI4
sg0
(g13
g2
Ntp319
Rp320
(dp321
g284
(dp322
S'p'
p323
g0
(g20
g2
Ntp324
Rp325
(dp326
g290
I2
sg291
(lp327
sg293
S'P'
p328
sg147
g295
sg149
I00
sbsS's'
p329
g0
(g20
g2
Ntp330
Rp331
(dp332
g290
I2
sg291
(lp333
sg293
S'S'
p334
sg147
g302
sg149
I00
sbsS'm'
p335
g0
(g20
g2
Ntp336
Rp337
(dp338
g290
I2
sg291
(lp339
sg293
S'M'
p340
sg147
g309
sg149
I00
sbssg310
g0
(g47
g2
Ntp341
Rp342
(dp343
g310
I2
sg314
I3
sbsg315
(dp344
S'betraying her nature'
p345
g0
(g55
g2
Ntp346
Rp347
(dp348
g59
(dp349
g61
((lp350
g63
aI01
tp351
sg65
((lp352
g67
ag67
aNtp353
sg69
((lp354
g71
aI00
tp355
sg73
((lp356
g75
aI01
tp357
sg77
((lp358
g79
aI01
tp359
sg81
((lp360
g79
aI01
tp361
sg84
((lp362
g75
aI01
tp363
ssg87
(lp364
sg89
S'Betraying Her Nature'
p365
sg91
I00
sbsS'friendly threat'
p366
g0
(g55
g2
Ntp367
Rp368
(dp369
g59
(dp370
g61
((lp371
g63
aI01
tp372
sg65
((lp373
g67
ag67
aNtp374
sg69
((lp375
g71
aI00
tp376
sg73
((lp377
g75
aI01
tp378
sg77
((lp379
g79
aI01
tp380
sg81
((lp381
g79
aI01
tp382
sg84
((lp383
g75
aI01
tp384
ssg87
(lp385
sg89
S'Friendly Threat'
p386
sg91
I00
sbsS'wtf'
p387
g0
(g55
g2
Ntp388
Rp389
(dp390
g59
(dp391
g61
((lp392
g63
aI01
tp393
sg65
((lp394
g67
ag67
aNtp395
sg69
((lp396
g71
aI00
tp397
sg73
((lp398
g75
aI01
tp399
sg77
((lp400
g79
aI01
tp401
sg81
((lp402
g79
aI01
tp403
sg84
((lp404
g75
aI01
tp405
ssg87
(lp406
sg89
S'WTF'
p407
sg91
I00
sbssg147
S'Persephone'
p408
sg318
I01
sbI7
sg0
(g13
g2
Ntp409
Rp410
(dp411
g17
(dp412
Vp
p413
g0
(g20
g2
Ntp414
Rp415
(dp416
g24
I3
sg25
(lp417
I1
asg27
g28
sg29
g30
sg31
I00
sbsVs
p418
g0
(g20
g2
Ntp419
Rp420
(dp421
g24
I3
sg25
(lp422
sg27
g37
sg29
g38
sg31
I00
sbsVm
p423
g0
(g20
g2
Ntp424
Rp425
(dp426
g24
I4
sg25
(lp427
I4
aI2
asg27
g44
sg29
g45
sg31
I00
sbsS'h'
p428
g0
(g20
g2
Ntp429
Rp430
(dp431
S'boxes'
p432
I6
sS'checked'
p433
(lp434
sS'shortname'
p435
S'H'
p436
sS'name'
p437
S'Hunger'
p438
sS'persist'
p439
I00
sbssg46
g0
(g47
g2
Ntp440
Rp441
(dp442
g46
I1
sg51
I1
sbsg52
(dp443
S'nosebleed'
p444
g0
(g55
g2
Ntp445
Rp446
(dp447
S'flag_transformers'
p448
(dp449
S'ConsMild'
p450
((lp451
S'mild'
p452
aI01
tp453
sS'style'
p454
((lp455
S'#'
p456
ag456
aNtp457
sS'fragile'
p458
((lp459
S'f'
p460
aI00
tp461
sS'ConsSev'
p462
((lp463
S'severe'
p464
aI01
tp465
sS'ConsMod'
p466
((lp467
S'moderate'
p468
aI01
tp469
sS'ConsModerate'
p470
((lp471
g468
aI01
tp472
sS'ConsSevere'
p473
((lp474
g464
aI01
tp475
ssS'flags'
p476
(lp477
g452
ag456
asS'name'
p478
S'Nosebleed'
p479
sS'persist'
p480
I01
sbsS'zippo'
p481
g0
(g55
g2
Ntp482
Rp483
(dp484
g448
(dp485
g450
((lp486
g452
aI01
tp487
sg454
((lp488
g456
ag456
aNtp489
sg458
((lp490
g460
aI00
tp491
sg462
((lp492
g464
aI01
tp493
sg466
((lp494
g468
aI01
tp495
sg470
((lp496
g468
aI01
tp497
sg473
((lp498
g464
aI01
tp499
ssg476
(lp500
sg478
S'Zippo'
p501
sg480
I00
sbsS'clear headed and ready to rock'
p502
g0
(g55
g2
Ntp503
Rp504
(dp505
g59
(dp506
g61
((lp507
g63
aI01
tp508
sg65
((lp509
g67
ag67
aNtp510
sg69
((lp511
g71
aI00
tp512
sg73
((lp513
g75
aI01
tp514
sg77
((lp515
g79
aI01
tp516
sg81
((lp517
g79
aI01
tp518
sg84
((lp519
g75
aI01
tp520
ssg87
(lp521
g67
ag67
asg89
S'Clear Headed and Ready to Rock'
p522
sg91
I00
sbsS'rage'
p523
g0
(g55
g2
Ntp524
Rp525
(dp526
g59
(dp527
g61
((lp528
g63
aI01
tp529
sg65
((lp530
g67
ag67
aNtp531
sg69
((lp532
g71
aI00
tp533
sg73
((lp534
g75
aI01
tp535
sg77
((lp536
g79
aI01
tp537
sg81
((lp538
g79
aI01
tp539
sg84
((lp540
g75
aI01
tp541
ssg87
(lp542
g67
asg89
S'RAGE'
p543
sg91
I00
sbssg29
VHawthorne
p544
sg172
I00
sbI7
sg0
(g13
g2
Ntp545
Rp546
(dp547
g17
(dp548
Vp
p549
g0
(g20
g2
Ntp550
Rp551
(dp552
g24
I4
sg25
(lp553
sg27
g28
sg29
g30
sg31
I00
sbsVs
p554
g0
(g20
g2
Ntp555
Rp556
(dp557
g24
I2
sg25
(lp558
sg27
g37
sg29
g38
sg31
I00
sbsVm
p559
g0
(g20
g2
Ntp560
Rp561
(dp562
g24
I3
sg25
(lp563
sg27
g44
sg29
g45
sg31
I00
sbssg46
g0
(g47
g2
Ntp564
Rp565
(dp566
g46
I6
sg51
I11
sbsg52
(dp567
S'torchlight'
p568
g0
(g55
g2
Ntp569
Rp570
(dp571
g117
(dp572
g119
((lp573
g121
aI01
tp574
sg123
((lp575
g125
ag125
aNtp576
sg127
((lp577
g129
aI00
tp578
sg131
((lp579
g133
aI01
tp580
sg135
((lp581
g137
aI01
tp582
sg139
((lp583
g137
aI01
tp584
sg142
((lp585
g133
aI01
tp586
ssg145
(lp587
sg147
S'torchlight'
p588
sg149
I00
sbsS'friend power'
p589
g0
(g55
g2
Ntp590
Rp591
(dp592
g59
(dp593
g61
((lp594
g63
aI01
tp595
sg65
((lp596
g67
ag67
aNtp597
sg69
((lp598
g71
aI00
tp599
sg73
((lp600
g75
aI01
tp601
sg77
((lp602
g79
aI01
tp603
sg81
((lp604
g79
aI01
tp605
sg84
((lp606
g75
aI01
tp607
ssg87
(lp608
sg89
S'Friend Power'
p609
sg91
I00
sbssg29
VFenrir
p610
sg172
I00
sbI6
sg0
(g13
g2
Ntp611
Rp612
(dp613
g17
(dp614
Vp
p615
g0
(g20
g2
Ntp616
Rp617
(dp618
g24
I4
sg25
(lp619
sg27
g28
sg29
g30
sg31
I00
sbsVs
p620
g0
(g20
g2
Ntp621
Rp622
(dp623
g24
I3
sg25
(lp624
sg27
g37
sg29
g38
sg31
I00
sbsVm
p625
g0
(g20
g2
Ntp626
Rp627
(dp628
g24
I4
sg25
(lp629
sg27
g44
sg29
g45
sg31
I00
sbssg46
g0
(g47
g2
Ntp630
Rp631
(dp632
g46
I2
sg51
I1
sbsg52
(dp633
S'bug bait'
p634
g0
(g55
g2
Ntp635
Rp636
(dp637
g448
(dp638
g450
((lp639
g452
aI01
tp640
sg454
((lp641
g456
ag456
aNtp642
sg458
((lp643
g460
aI00
tp644
sg462
((lp645
g464
aI01
tp646
sg466
((lp647
g468
aI01
tp648
sg470
((lp649
g468
aI01
tp650
sg473
((lp651
g464
aI01
tp652
ssg476
(lp653
g456
asg478
S'Bug Bait'
p654
sg480
I00
sbssg29
VPablo
p655
sg172
I00
sbI-4
sg0
(g13
g2
Ntp656
Rp657
(dp658
g284
(dp659
S'p'
p660
g0
(g20
g2
Ntp661
Rp662
(dp663
g290
I2
sg291
(lp664
sg293
S'P'
p665
sg147
g295
sg149
I00
sbsS's'
p666
g0
(g20
g2
Ntp667
Rp668
(dp669
g290
I2
sg291
(lp670
sg293
S'S'
p671
sg147
g302
sg149
I00
sbsS'm'
p672
g0
(g20
g2
Ntp673
Rp674
(dp675
g290
I2
sg291
(lp676
sg293
S'M'
p677
sg147
g309
sg149
I00
sbssg310
g0
(g47
g2
Ntp678
Rp679
(dp680
g310
I3
sg314
I3
sbsg315
(dp681
S'more burning'
p682
g0
(g55
g2
Ntp683
Rp684
(dp685
g448
(dp686
g450
((lp687
g452
aI01
tp688
sg454
((lp689
g456
ag456
aNtp690
sg458
((lp691
g460
aI00
tp692
sg462
((lp693
g464
aI01
tp694
sg466
((lp695
g468
aI01
tp696
sg470
((lp697
g468
aI01
tp698
sg473
((lp699
g464
aI01
tp700
ssg476
(lp701
g456
asg478
S'More Burning'
p702
sg480
I00
sbsS'burning'
p703
g0
(g55
g2
Ntp704
Rp705
(dp706
g448
(dp707
g450
((lp708
g452
aI01
tp709
sg454
((lp710
g456
ag456
aNtp711
sg458
((lp712
g460
aI00
tp713
sg462
((lp714
g464
aI01
tp715
sg466
((lp716
g468
aI01
tp717
sg470
((lp718
g468
aI01
tp719
sg473
((lp720
g464
aI01
tp721
ssg476
(lp722
sg478
S'Burning'
p723
sg480
I00
sbssg147
S'Panthropods'
p724
sg318
I01
sbI6
sg0
(g13
g2
Ntp725
Rp726
(dp727
g284
(dp728
S'p'
p729
g0
(g20
g2
Ntp730
Rp731
(dp732
g290
I2
sg291
(lp733
sg293
S'P'
p734
sg147
g295
sg149
I00
sbsS's'
p735
g0
(g20
g2
Ntp736
Rp737
(dp738
g290
I2
sg291
(lp739
sg293
S'S'
p740
sg147
g302
sg149
I00
sbsS'm'
p741
g0
(g20
g2
Ntp742
Rp743
(dp744
g290
I2
sg291
(lp745
sg293
S'M'
p746
sg147
g309
sg149
I00
sbssg310
g0
(g47
g2
Ntp747
Rp748
(dp749
g310
I3
sg314
I3
sbsg315
(dp750
sg147
S'Elf'
p751
sg318
I01
sbI5
sNI2
sg0
(g13
g2
Ntp752
Rp753
(dp754
g284
(dp755
S'p'
p756
g0
(g20
g2
Ntp757
Rp758
(dp759
g290
I2
sg291
(lp760
sg293
S'P'
p761
sg147
g295
sg149
I00
sbsS's'
p762
g0
(g20
g2
Ntp763
Rp764
(dp765
g290
I2
sg291
(lp766
sg293
S'S'
p767
sg147
g302
sg149
I00
sbsS'm'
p768
g0
(g20
g2
Ntp769
Rp770
(dp771
g290
I2
sg291
(lp772
sg293
S'M'
p773
sg147
g309
sg149
I00
sbssg310
g0
(g47
g2
Ntp774
Rp775
(dp776
g310
I0
sg314
I3
sbsg315
(dp777
S'bleeding'
p778
g0
(g55
g2
Ntp779
Rp780
(dp781
g448
(dp782
g450
((lp783
g452
aI01
tp784
sg454
((lp785
g456
ag456
aNtp786
sg458
((lp787
g460
aI00
tp788
sg462
((lp789
g464
aI01
tp790
sg466
((lp791
g468
aI01
tp792
sg470
((lp793
g468
aI01
tp794
sg473
((lp795
g464
aI01
tp796
ssg476
(lp797
g452
ag456
asg478
S'Bleeding'
p798
sg480
I01
sbsS'arterial spray'
p799
g0
(g55
g2
Ntp800
Rp801
(dp802
g448
(dp803
g450
((lp804
g452
aI01
tp805
sg454
((lp806
g456
ag456
aNtp807
sg458
((lp808
g460
aI00
tp809
sg462
((lp810
g464
aI01
tp811
sg466
((lp812
g468
aI01
tp813
sg470
((lp814
g468
aI01
tp815
sg473
((lp816
g464
aI01
tp817
ssg476
(lp818
g468
ag456
asg478
S'Arterial Spray'
p819
sg480
I01
sbssg147
S'Goblin'
p820
sg318
I01
sbI4
sg0
(g13
g2
Ntp821
Rp822
(dp823
g17
(dp824
Vp
p825
g0
(g20
g2
Ntp826
Rp827
(dp828
g24
I4
sg25
(lp829
I2
aI-2
aI3
asg27
g28
sg29
g30
sg31
I00
sbsVs
p830
g0
(g20
g2
Ntp831
Rp832
(dp833
g24
I2
sg25
(lp834
sg27
g37
sg29
g38
sg31
I00
sbsVm
p835
g0
(g20
g2
Ntp836
Rp837
(dp838
g24
I3
sg25
(lp839
sg27
g44
sg29
g45
sg31
I00
sbssg46
g0
(g47
g2
Ntp840
Rp841
(dp842
g46
I0
sg51
I6
sbsg52
(dp843
S'f-ing branches'
p844
g0
(g55
g2
Ntp845
Rp846
(dp847
g59
(dp848
g61
((lp849
g63
aI01
tp850
sg65
((lp851
g67
ag67
aNtp852
sg69
((lp853
g71
aI00
tp854
sg73
((lp855
g75
aI01
tp856
sg77
((lp857
g79
aI01
tp858
sg81
((lp859
g79
aI01
tp860
sg84
((lp861
g75
aI01
tp862
ssg87
(lp863
S'consmild'
p864
ag67
asg89
S'f-ing branches'
p865
sg91
I00
sbsS'favorite knife'
p866
g0
(g55
g2
Ntp867
Rp868
(dp869
g59
(dp870
g61
((lp871
g63
aI01
tp872
sg65
((lp873
g67
ag67
aNtp874
sg69
((lp875
g71
aI00
tp876
sg73
((lp877
g75
aI01
tp878
sg77
((lp879
g79
aI01
tp880
sg81
((lp881
g79
aI01
tp882
sg84
((lp883
g75
aI01
tp884
ssg87
(lp885
sg89
S'Favorite Knife'
p886
sg91
I00
sbssg29
VPatrice
p887
sg172
I00
sbI16
sg0
(g13
g2
Ntp888
Rp889
(dp890
g17
(dp891
Vp
p892
g0
(g20
g2
Ntp893
Rp894
(dp895
g24
I3
sg25
(lp896
I3
asg27
g28
sg29
g30
sg31
I00
sbsVs
p897
g0
(g20
g2
Ntp898
Rp899
(dp900
g24
I2
sg25
(lp901
sg27
g37
sg29
g38
sg31
I00
sbsVm
p902
g0
(g20
g2
Ntp903
Rp904
(dp905
g24
I3
sg25
(lp906
sg27
g44
sg29
g45
sg31
I00
sbssg46
g0
(g47
g2
Ntp907
Rp908
(dp909
g46
I2
sg51
I6
sbsg52
(dp910
S'watching our backs'
p911
g0
(g55
g2
Ntp912
Rp913
(dp914
g117
(dp915
g119
((lp916
g121
aI01
tp917
sg123
((lp918
g125
ag125
aNtp919
sg127
((lp920
g129
aI00
tp921
sg131
((lp922
g133
aI01
tp923
sg135
((lp924
g137
aI01
tp925
sg139
((lp926
g137
aI01
tp927
sg142
((lp928
g133
aI01
tp929
ssg145
(lp930
sg147
S'watching our backs'
p931
sg149
I00
sbsS'these arrows are bull tipped'
p932
g0
(g55
g2
Ntp933
Rp934
(dp935
g59
(dp936
g61
((lp937
g63
aI01
tp938
sg65
((lp939
g67
ag67
aNtp940
sg69
((lp941
g71
aI00
tp942
sg73
((lp943
g75
aI01
tp944
sg77
((lp945
g79
aI01
tp946
sg81
((lp947
g79
aI01
tp948
sg84
((lp949
g75
aI01
tp950
ssg87
(lp951
sg89
S'these arrows are bull tipped'
p952
sg91
I00
sbssg29
VHart
p953
sg172
I00
sbI7
sg0
(g13
g2
Ntp954
Rp955
(dp956
g284
(dp957
S'p'
p958
g0
(g20
g2
Ntp959
Rp960
(dp961
g290
I2
sg291
(lp962
sg293
S'P'
p963
sg147
g295
sg149
I00
sbsS's'
p964
g0
(g20
g2
Ntp965
Rp966
(dp967
g290
I2
sg291
(lp968
sg293
S'S'
p969
sg147
g302
sg149
I00
sbsS'm'
p970
g0
(g20
g2
Ntp971
Rp972
(dp973
g290
I2
sg291
(lp974
sg293
S'M'
p975
sg147
g309
sg149
I00
sbssg310
g0
(g47
g2
Ntp976
Rp977
(dp978
g310
I2
sg314
I3
sbsg315
(dp979
S'at our mercy'
p980
g0
(g55
g2
Ntp981
Rp982
(dp983
g59
(dp984
g61
((lp985
g63
aI01
tp986
sg65
((lp987
g67
ag67
aNtp988
sg69
((lp989
g71
aI00
tp990
sg73
((lp991
g75
aI01
tp992
sg77
((lp993
g79
aI01
tp994
sg81
((lp995
g79
aI01
tp996
sg84
((lp997
g75
aI01
tp998
ssg87
(lp999
g67
asg89
S'at our mercy'
p1000
sg91
I00
sbsS'blinded by debris'
p1001
g0
(g55
g2
Ntp1002
Rp1003
(dp1004
g59
(dp1005
g61
((lp1006
g63
aI01
tp1007
sg65
((lp1008
g67
ag67
aNtp1009
sg69
((lp1010
g71
aI00
tp1011
sg73
((lp1012
g75
aI01
tp1013
sg77
((lp1014
g79
aI01
tp1015
sg81
((lp1016
g79
aI01
tp1017
sg84
((lp1018
g75
aI01
tp1019
ssg87
(lp1020
sg89
S'Blinded by Debris'
p1021
sg91
I00
sbsS'no ribs either'
p1022
g0
(g55
g2
Ntp1023
Rp1024
(dp1025
g59
(dp1026
g61
((lp1027
g63
aI01
tp1028
sg65
((lp1029
g67
ag67
aNtp1030
sg69
((lp1031
g71
aI00
tp1032
sg73
((lp1033
g75
aI01
tp1034
sg77
((lp1035
g79
aI01
tp1036
sg81
((lp1037
g79
aI01
tp1038
sg84
((lp1039
g75
aI01
tp1040
ssg87
(lp1041
S'ConsXTREME'
p1042
ag67
asg89
S'No Ribs Either'
p1043
sg91
I00
sbsS'rage'
p1044
g0
(g55
g2
Ntp1045
Rp1046
(dp1047
g59
(dp1048
g61
((lp1049
g63
aI01
tp1050
sg65
((lp1051
g67
ag67
aNtp1052
sg69
((lp1053
g71
aI00
tp1054
sg73
((lp1055
g75
aI01
tp1056
sg77
((lp1057
g79
aI01
tp1058
sg81
((lp1059
g79
aI01
tp1060
sg84
((lp1061
g75
aI01
tp1062
ssg87
(lp1063
sg89
S'RAGE'
p1064
sg91
I00
sbsS'exhausted'
p1065
g0
(g55
g2
Ntp1066
Rp1067
(dp1068
g59
(dp1069
g61
((lp1070
g63
aI01
tp1071
sg65
((lp1072
g67
ag67
aNtp1073
sg69
((lp1074
g71
aI00
tp1075
sg73
((lp1076
g75
aI01
tp1077
sg77
((lp1078
g79
aI01
tp1079
sg81
((lp1080
g79
aI01
tp1081
sg84
((lp1082
g75
aI01
tp1083
ssg87
(lp1084
g79
asg89
S'Exhausted'
p1085
sg91
I01
sbsS'pinning shot'
p1086
g0
(g55
g2
Ntp1087
Rp1088
(dp1089
g59
(dp1090
g61
((lp1091
g63
aI01
tp1092
sg65
((lp1093
g67
ag67
aNtp1094
sg69
((lp1095
g71
aI00
tp1096
sg73
((lp1097
g75
aI01
tp1098
sg77
((lp1099
g79
aI01
tp1100
sg81
((lp1101
g79
aI01
tp1102
sg84
((lp1103
g75
aI01
tp1104
ssg87
(lp1105
g67
asg89
S'pinning shot'
p1106
sg91
I00
sbsS'right arm pinned'
p1107
g0
(g55
g2
Ntp1108
Rp1109
(dp1110
g59
(dp1111
g61
((lp1112
g63
aI01
tp1113
sg65
((lp1114
g67
ag67
aNtp1115
sg69
((lp1116
g71
aI00
tp1117
sg73
((lp1118
g75
aI01
tp1119
sg77
((lp1120
g79
aI01
tp1121
sg81
((lp1122
g79
aI01
tp1123
sg84
((lp1124
g75
aI01
tp1125
ssg87
(lp1126
g67
asg89
S'right arm pinned'
p1127
sg91
I00
sbsS'on her bony ass'
p1128
g0
(g55
g2
Ntp1129
Rp1130
(dp1131
g59
(dp1132
g61
((lp1133
g63
aI01
tp1134
sg65
((lp1135
g67
ag67
aNtp1136
sg69
((lp1137
g71
aI00
tp1138
sg73
((lp1139
g75
aI01
tp1140
sg77
((lp1141
g79
aI01
tp1142
sg81
((lp1143
g79
aI01
tp1144
sg84
((lp1145
g75
aI01
tp1146
ssg87
(lp1147
g67
asg89
S'On Her Bony Ass'
p1148
sg91
I00
sbsS'for shame'
p1149
g0
(g55
g2
Ntp1150
Rp1151
(dp1152
g59
(dp1153
g61
((lp1154
g63
aI01
tp1155
sg65
((lp1156
g67
ag67
aNtp1157
sg69
((lp1158
g71
aI00
tp1159
sg73
((lp1160
g75
aI01
tp1161
sg77
((lp1162
g79
aI01
tp1163
sg81
((lp1164
g79
aI01
tp1165
sg84
((lp1166
g75
aI01
tp1167
ssg87
(lp1168
g67
asg89
S'for shame'
p1169
sg91
I00
sbsS'confusing aafterimages dammit!'
p1170
g0
(g55
g2
Ntp1171
Rp1172
(dp1173
g59
(dp1174
g61
((lp1175
g63
aI01
tp1176
sg65
((lp1177
g67
ag67
aNtp1178
sg69
((lp1179
g71
aI00
tp1180
sg73
((lp1181
g75
aI01
tp1182
sg77
((lp1183
g79
aI01
tp1184
sg81
((lp1185
g79
aI01
tp1186
sg84
((lp1187
g75
aI01
tp1188
ssg87
(lp1189
sg89
S'Confusing AAFTERIMAGES DAMMIT!'
p1190
sg91
I00
sbsS'neck exposed'
p1191
g0
(g55
g2
Ntp1192
Rp1193
(dp1194
g59
(dp1195
g61
((lp1196
g63
aI01
tp1197
sg65
((lp1198
g67
ag67
aNtp1199
sg69
((lp1200
g71
aI00
tp1201
sg73
((lp1202
g75
aI01
tp1203
sg77
((lp1204
g79
aI01
tp1205
sg81
((lp1206
g79
aI01
tp1207
sg84
((lp1208
g75
aI01
tp1209
ssg87
(lp1210
g67
asg89
S'neck exposed'
p1211
sg91
I00
sbsS'uneven footing'
p1212
g0
(g55
g2
Ntp1213
Rp1214
(dp1215
g59
(dp1216
g61
((lp1217
g63
aI01
tp1218
sg65
((lp1219
g67
ag67
aNtp1220
sg69
((lp1221
g71
aI00
tp1222
sg73
((lp1223
g75
aI01
tp1224
sg77
((lp1225
g79
aI01
tp1226
sg81
((lp1227
g79
aI01
tp1228
sg84
((lp1229
g75
aI01
tp1230
ssg87
(lp1231
sg89
S'Uneven Footing'
p1232
sg91
I00
sbsS'left arm pinned'
p1233
g0
(g55
g2
Ntp1234
Rp1235
(dp1236
g59
(dp1237
g61
((lp1238
g63
aI01
tp1239
sg65
((lp1240
g67
ag67
aNtp1241
sg69
((lp1242
g71
aI00
tp1243
sg73
((lp1244
g75
aI01
tp1245
sg77
((lp1246
g79
aI01
tp1247
sg81
((lp1248
g79
aI01
tp1249
sg84
((lp1250
g75
aI01
tp1251
ssg87
(lp1252
g67
asg89
S'left arm pinned'
p1253
sg91
I00
sbsS'no flesh'
p1254
g0
(g55
g2
Ntp1255
Rp1256
(dp1257
g59
(dp1258
g61
((lp1259
g63
aI01
tp1260
sg65
((lp1261
g67
ag67
aNtp1262
sg69
((lp1263
g71
aI00
tp1264
sg73
((lp1265
g75
aI01
tp1266
sg77
((lp1267
g79
aI01
tp1268
sg81
((lp1269
g79
aI01
tp1270
sg84
((lp1271
g75
aI01
tp1272
ssg87
(lp1273
g75
asg89
S'No Flesh'
p1274
sg91
I01
sbssg147
S'Demeter'
p1275
sg318
I01
sbI7
sg0
(g13
g2
Ntp1276
Rp1277
(dp1278
g17
(dp1279
Vp
p1280
g0
(g20
g2
Ntp1281
Rp1282
(dp1283
g24
I8
sg25
(lp1284
I1
aI4
aI3
aI6
aI7
asg27
g28
sg29
g30
sg31
I00
sbsVs
p1285
g0
(g20
g2
Ntp1286
Rp1287
(dp1288
g24
I3
sg25
(lp1289
sg27
g37
sg29
g38
sg31
I00
sbsVm
p1290
g0
(g20
g2
Ntp1291
Rp1292
(dp1293
g24
I4
sg25
(lp1294
I1
aI2
aI3
aI4
asg27
g44
sg29
g45
sg31
I00
sbssg46
g0
(g47
g2
Ntp1295
Rp1296
(dp1297
g46
I2
sg51
I1
sbsg52
(dp1298
S'wrathful power'
p1299
g0
(g55
g2
Ntp1300
Rp1301
(dp1302
g448
(dp1303
g450
((lp1304
g452
aI01
tp1305
sg454
((lp1306
g456
ag456
aNtp1307
sg458
((lp1308
g460
aI00
tp1309
sg462
((lp1310
g464
aI01
tp1311
sg466
((lp1312
g468
aI01
tp1313
sg470
((lp1314
g468
aI01
tp1315
sg473
((lp1316
g464
aI01
tp1317
ssg476
(lp1318
sg478
S'wrathful power'
p1319
sg480
I00
sbsS'empowered'
p1320
g0
(g55
g2
Ntp1321
Rp1322
(dp1323
g59
(dp1324
g61
((lp1325
g63
aI01
tp1326
sg65
((lp1327
g67
ag67
aNtp1328
sg69
((lp1329
g71
aI00
tp1330
sg73
((lp1331
g75
aI01
tp1332
sg77
((lp1333
g79
aI01
tp1334
sg81
((lp1335
g79
aI01
tp1336
sg84
((lp1337
g75
aI01
tp1338
ssg87
(lp1339
sg89
S'Empowered'
p1340
sg91
I00
sbsS'bull headed'
p1341
g0
(g55
g2
Ntp1342
Rp1343
(dp1344
g59
(dp1345
g61
((lp1346
g63
aI01
tp1347
sg65
((lp1348
g67
ag67
aNtp1349
sg69
((lp1350
g71
aI00
tp1351
sg73
((lp1352
g75
aI01
tp1353
sg77
((lp1354
g79
aI01
tp1355
sg81
((lp1356
g79
aI01
tp1357
sg84
((lp1358
g75
aI01
tp1359
ssg87
(lp1360
g79
ag67
asg89
S'bull headed'
p1361
sg91
I01
sbssg29
VCalaca
p1362
sg172
I00
sbI3
ssbsVconfig
p1363
(dp1364
Vpickle
p1365
Vsc.pkl
p1366
sVrevisionfile
p1367
Vscrevs.yml
p1368
sVtitle
p1369
VDFRPG Santa Cruz Bot
p1370
ssVlookup
p1371
g0
(cdfrpgmon2
Lookup
p1372
g2
Ntp1373
Rp1374
(dp1375
V_nicks
p1376
(dp1377
g1275
S'Demeter'
p1378
sS'Peregrine'
p1379
S'Darewolf'
p1380
sS'SCENE'
p1381
S'med'
p1382
sS'Jan'
p1383
S'Jan'
p1384
sg171
S'Darewolf'
p1385
sS'Scarecrow'
p1386
S'GiantScarecrow'
p1387
sS'Leader'
p1388
S'Steven'
p1389
sS'Garou'
p1390
S'Garou'
p1391
sS'Bruisers'
p1392
S'Bruiser'
p1393
sS'Mike'
p1394
S'Keljan'
p1395
sS'Lycan'
p1396
S'Lycan2'
p1397
sS'Susan'
p1398
S'Fen'
p1399
sS'MagicDragon'
p1400
S'med'
p1401
sg544
S'Hawthorne'
p1402
sS'Warden'
p1403
S'Warden'
p1404
sS'Kat'
p1405
S'Kat'
p1406
sg280
g280
sg1362
S'Pablo'
p1407
sVDare
p1408
S'Dare'
p1409
sS'Puft'
p1410
S'MarshmallowMan'
p1411
sS'Assassins'
p1412
S'Assassins'
p1413
sg610
S'Fen'
p1414
sg887
g887
sg751
S'Elf'
p1415
sS'Bruiser'
p1416
S'Van'
p1417
sS'Bot'
p1418
S'Dare'
p1419
sg317
S'Bugs'
p1420
sS'Clown'
p1421
S'Clown'
p1422
sg655
S'Pablo'
p1423
sS'Galatea'
p1424
S'Galatea'
p1425
sS'Sparrows'
p1426
S'Kat'
p1427
sS'Minotaurs'
p1428
S'Demeter'
p1429
sg724
S'Panthropods'
p1430
sS'Goblin'
p1431
S'Goblin'
p1432
sS'Teresa'
p1433
S'Teresa'
p1434
sS'Scene'
p1435
S'Ghsdkgb'
p1436
sS'NPC'
p1437
S'Mike'
p1438
sS'Steven'
p1439
S'Steven'
p1440
sg953
g953
sg408
S'Persephone'
p1441
sS'testNPC'
p1442
S'NPC2'
p1443
sS'Minotaur'
p1444
S'Persephone'
p1445
ssV_aliases
p1446
(dp1447
Vpatrice#nick
p1448
g822
sS'demeter#nick'
p1449
g955
sS'ghsdkgb#nick'
p1450
g0
(g13
g2
Ntp1451
Rp1452
(dp1453
S'stress'
p1454
(dp1455
S'p'
p1456
g0
(g20
g2
Ntp1457
Rp1458
(dp1459
S'boxes'
p1460
I2
sS'checked'
p1461
(lp1462
sS'shortname'
p1463
S'P'
p1464
sS'name'
p1465
S'Physical'
p1466
sS'persist'
p1467
I00
sbsS's'
p1468
g0
(g20
g2
Ntp1469
Rp1470
(dp1471
g1460
I2
sg1461
(lp1472
sg1463
S'S'
p1473
sg1465
S'Social'
p1474
sg1467
I00
sbsS'm'
p1475
g0
(g20
g2
Ntp1476
Rp1477
(dp1478
g1460
I2
sg1461
(lp1479
sg1463
S'M'
p1480
sg1465
S'Mental'
p1481
sg1467
I00
sbssS'fate'
p1482
g0
(g47
g2
Ntp1483
Rp1484
(dp1485
g1482
I3
sS'refresh'
p1486
I3
sbsS'aspects'
p1487
(dp1488
S'light'
p1489
g0
(g55
g2
Ntp1490
Rp1491
(dp1492
g117
(dp1493
g119
((lp1494
g121
aI01
tp1495
sg123
((lp1496
g125
ag125
aNtp1497
sg127
((lp1498
g129
aI00
tp1499
sg131
((lp1500
g133
aI01
tp1501
sg135
((lp1502
g137
aI01
tp1503
sg139
((lp1504
g137
aI01
tp1505
sg142
((lp1506
g133
aI01
tp1507
ssg145
(lp1508
sg147
S'Light'
p1509
sg149
I00
sbsS'terrifying wolf howl'
p1510
g0
(g55
g2
Ntp1511
Rp1512
(dp1513
g117
(dp1514
g119
((lp1515
g121
aI01
tp1516
sg123
((lp1517
g125
ag125
aNtp1518
sg127
((lp1519
g129
aI00
tp1520
sg131
((lp1521
g133
aI01
tp1522
sg135
((lp1523
g137
aI01
tp1524
sg139
((lp1525
g137
aI01
tp1526
sg142
((lp1527
g133
aI01
tp1528
ssg145
(lp1529
sg147
S'Terrifying Wolf Howl'
p1530
sg149
I00
sbsS'rotting floors'
p1531
g0
(g55
g2
Ntp1532
Rp1533
(dp1534
g59
(dp1535
g61
((lp1536
g63
aI01
tp1537
sg65
((lp1538
g67
ag67
aNtp1539
sg69
((lp1540
g71
aI00
tp1541
sg73
((lp1542
g75
aI01
tp1543
sg77
((lp1544
g79
aI01
tp1545
sg81
((lp1546
g79
aI01
tp1547
sg84
((lp1548
g75
aI01
tp1549
ssg87
(lp1550
g67
asg89
S'Rotting Floors'
p1551
sg91
I00
sbssg1465
S'Scene'
p1552
sS'NPC'
p1553
I01
sbsVfenrir#nick
p1554
g546
sVhawthorne#nick
p1555
g410
sS'scene'
p1556
g1452
sVdarewolf
p1557
g15
sVcedric#nick
p1558
g174
sVpablo
p1559
g612
sVhart
p1560
g889
sS'persephone#nick'
p1561
g320
sVdare#nick
p1562
g0
(g13
g2
Ntp1563
Rp1564
(dp1565
g17
(dp1566
Vp
p1567
g0
(g20
g2
Ntp1568
Rp1569
(dp1570
g24
I3
sg25
(lp1571
sg27
g28
sg29
g30
sg31
I00
sbsVs
p1572
g0
(g20
g2
Ntp1573
Rp1574
(dp1575
g24
I4
sg25
(lp1576
sg27
g37
sg29
g38
sg31
I00
sbsVm
p1577
g0
(g20
g2
Ntp1578
Rp1579
(dp1580
g24
I3
sg25
(lp1581
sg27
g44
sg29
g45
sg31
I00
sbssg46
g0
(g47
g2
Ntp1582
Rp1583
(dp1584
g46
I9
sg51
I1
sbsg52
(dp1585
sg29
g1408
sg172
I00
sbsS'minotaur'
p1586
g0
(g13
g2
Ntp1587
Rp1588
(dp1589
S'stress'
p1590
(dp1591
S'p'
p1592
g0
(g20
g2
Ntp1593
Rp1594
(dp1595
S'boxes'
p1596
I2
sS'checked'
p1597
(lp1598
sS'shortname'
p1599
S'P'
p1600
sg89
S'Physical'
p1601
sg91
I00
sbsS's'
p1602
g0
(g20
g2
Ntp1603
Rp1604
(dp1605
g1596
I2
sg1597
(lp1606
sg1599
S'S'
p1607
sg89
S'Social'
p1608
sg91
I00
sbsS'm'
p1609
g0
(g20
g2
Ntp1610
Rp1611
(dp1612
g1596
I2
sg1597
(lp1613
sg1599
S'M'
p1614
sg89
S'Mental'
p1615
sg91
I00
sbssS'fate'
p1616
g0
(g47
g2
Ntp1617
Rp1618
(dp1619
g1616
I3
sS'refresh'
p1620
I3
sbsS'aspects'
p1621
(dp1622
sg89
g1444
sS'NPC'
p1623
I01
sbsS'hawk'
p1624
g410
sS'pat'
p1625
g822
sVpablo#nick
p1626
g1277
sS'demeter'
p1627
g955
sS'fen'
p1628
g546
sVhart#nick
p1629
g889
sS'mike'
p1630
g0
(g13
g2
Ntp1631
Rp1632
(dp1633
g1590
(dp1634
S'p'
p1635
g0
(g20
g2
Ntp1636
Rp1637
(dp1638
g1596
I2
sg1597
(lp1639
sg1599
S'P'
p1640
sg89
g1601
sg91
I00
sbsS's'
p1641
g0
(g20
g2
Ntp1642
Rp1643
(dp1644
g1596
I2
sg1597
(lp1645
sg1599
S'S'
p1646
sg89
g1608
sg91
I00
sbsS'm'
p1647
g0
(g20
g2
Ntp1648
Rp1649
(dp1650
g1596
I2
sg1597
(lp1651
sg1599
S'M'
p1652
sg89
g1615
sg91
I00
sbssg1616
g0
(g47
g2
Ntp1653
Rp1654
(dp1655
g1616
I3
sg1620
I3
sbsg1621
(dp1656
S'grabbing attention'
p1657
g0
(g55
g2
Ntp1658
Rp1659
(dp1660
g59
(dp1661
g61
((lp1662
g63
aI01
tp1663
sg65
((lp1664
g67
ag67
aNtp1665
sg69
((lp1666
g71
aI00
tp1667
sg73
((lp1668
g75
aI01
tp1669
sg77
((lp1670
g79
aI01
tp1671
sg81
((lp1672
g79
aI01
tp1673
sg84
((lp1674
g75
aI01
tp1675
ssg87
(lp1676
g67
asg89
S'Grabbing Attention'
p1677
sg91
I00
sbsS'zoned out'
p1678
g0
(g55
g2
Ntp1679
Rp1680
(dp1681
g59
(dp1682
g61
((lp1683
g63
aI01
tp1684
sg65
((lp1685
g67
ag67
aNtp1686
sg69
((lp1687
g71
aI00
tp1688
sg73
((lp1689
g75
aI01
tp1690
sg77
((lp1691
g79
aI01
tp1692
sg81
((lp1693
g79
aI01
tp1694
sg84
((lp1695
g75
aI01
tp1696
ssg87
(lp1697
g67
asg89
S'Zoned Out'
p1698
sg91
I00
sbssg89
S'Mike'
p1699
sg1623
I01
sbsS'ced'
p1700
g174
sS'persephone'
p1701
g320
sVhawthorne
p1702
g410
sVdarewolf#nick
p1703
g15
sS'annpc#nick'
p1704
g955
sVcedric
p1705
g174
sVcalaca
p1706
g1277
sVdare
p1707
g1564
sVfenrir
p1708
g546
sVpatrice
p1709
g822
sS'keljan#nick'
p1710
g1632
sS'hawthorne_#nick'
p1711
g320
sS'fen#nick'
p1712
g546
sS'med#nick'
p1713
g546
sVcalaca#nick
p1714
g1277
ssVcharacters
p1715
(lp1716
g174
ag612
ag1564
ag410
ag822
ag889
ag546
ag1277
ag15
ag1452
ag0
(g13
g2
Ntp1717
Rp1718
(dp1719
g1454
(dp1720
S'p'
p1721
g0
(g20
g2
Ntp1722
Rp1723
(dp1724
g1460
I2
sg1461
(lp1725
sg1463
S'P'
p1726
sg1465
g1466
sg1467
I00
sbsS's'
p1727
g0
(g20
g2
Ntp1728
Rp1729
(dp1730
g1460
I2
sg1461
(lp1731
sg1463
S'S'
p1732
sg1465
g1474
sg1467
I00
sbsS'm'
p1733
g0
(g20
g2
Ntp1734
Rp1735
(dp1736
g1460
I2
sg1461
(lp1737
sg1463
S'M'
p1738
sg1465
g1481
sg1467
I00
sbssg1482
g0
(g47
g2
Ntp1739
Rp1740
(dp1741
g1482
I3
sg1486
I3
sbsg1487
(dp1742
sg1465
S'purge'
p1743
sg1553
I01
sbag0
(g13
g2
Ntp1744
Rp1745
(dp1746
g1454
(dp1747
S'p'
p1748
g0
(g20
g2
Ntp1749
Rp1750
(dp1751
g1460
I2
sg1461
(lp1752
sg1463
S'P'
p1753
sg1465
g1466
sg1467
I00
sbsS's'
p1754
g0
(g20
g2
Ntp1755
Rp1756
(dp1757
g1460
I2
sg1461
(lp1758
sg1463
S'S'
p1759
sg1465
g1474
sg1467
I00
sbsS'm'
p1760
g0
(g20
g2
Ntp1761
Rp1762
(dp1763
g1460
I2
sg1461
(lp1764
sg1463
S'M'
p1765
sg1465
g1481
sg1467
I00
sbssg1482
g0
(g47
g2
Ntp1766
Rp1767
(dp1768
g1482
I3
sg1486
I3
sbsg1487
(dp1769
sg1465
S''
p1770
sg1553
I01
sbag955
ag320
ag1588
ag1632
asbsVorder
p1771
g0
(cdfrpgmon2
TurnOrdering
p1772
g2
Ntp1773
Rp1774
(dp1775
S'ordering'
p1776
(lp1777
(I55
g955
tp1778
a(I53
g174
tp1779
a(I8
g15
tp1780
a(I5
g889
tp1781
a(I1
g1277
tp1782
a(I0
g546
tp1783
asS'index'
p1784
I1
sbsg1715
(lp1785
g174
ag612
ag1564
ag410
ag822
ag889
ag546
ag1277
ag15
ag1452
ag1718
ag1745
ag955
ag320
ag1588
ag1632
asb.