ccopy_reg
_reconstructor
p0
(cdfrpgmon2
FATEGAME
p1
c__builtin__
object
p2
Ntp3
Rp4
(dp5
Vrolling
p6
g0
(cdfrpgmon2
PlayerDice
p7
g2
Ntp8
Rp9
(dp10
S'rolls'
p11
(dp12
g0
(cdfrpgmon2
Character
p13
g2
Ntp14
Rp15
(dp16
S'stress'
p17
(dp18
S'p'
p19
g0
(cdfrpgmon2
StressTrack
p20
g2
Ntp21
Rp22
(dp23
S'boxes'
p24
I2
sS'checked'
p25
(lp26
sS'shortname'
p27
S'P'
p28
sS'name'
p29
S'Physical'
p30
sS'persist'
p31
I00
sbsS's'
p32
g0
(g20
g2
Ntp33
Rp34
(dp35
g24
I2
sg25
(lp36
sg27
S'S'
p37
sg29
S'Social'
p38
sg31
I00
sbsS'm'
p39
g0
(g20
g2
Ntp40
Rp41
(dp42
g24
I2
sg25
(lp43
sg27
S'M'
p44
sg29
S'Mental'
p45
sg31
I00
sbssS'fate'
p46
g0
(cdfrpgmon2
Fate
p47
g2
Ntp48
Rp49
(dp50
g46
I2
sS'refresh'
p51
I3
sbsS'aspects'
p52
(dp53
S'at our mercy'
p54
g0
(cdfrpgmon2
Aspect
p55
g2
Ntp56
Rp57
(dp58
S'flag_transformers'
p59
(dp60
S'ConsMild'
p61
((lp62
S'mild'
p63
aI01
tp64
sS'style'
p65
((lp66
S'#'
p67
ag67
aNtp68
sS'fragile'
p69
((lp70
S'f'
p71
aI00
tp72
sS'ConsSev'
p73
((lp74
S'severe'
p75
aI01
tp76
sS'ConsMod'
p77
((lp78
S'moderate'
p79
aI01
tp80
sS'ConsModerate'
p81
((lp82
g79
aI01
tp83
sS'ConsSevere'
p84
((lp85
g75
aI01
tp86
ssS'flags'
p87
(lp88
g67
asS'name'
p89
S'at our mercy'
p90
sS'persist'
p91
I00
sbsS'uneven footing'
p92
g0
(g55
g2
Ntp93
Rp94
(dp95
g59
(dp96
g61
((lp97
g63
aI01
tp98
sg65
((lp99
g67
ag67
aNtp100
sg69
((lp101
g71
aI00
tp102
sg73
((lp103
g75
aI01
tp104
sg77
((lp105
g79
aI01
tp106
sg81
((lp107
g79
aI01
tp108
sg84
((lp109
g75
aI01
tp110
ssg87
(lp111
sg89
S'Uneven Footing'
p112
sg91
I00
sbsS'no ribs either'
p113
g0
(g55
g2
Ntp114
Rp115
(dp116
g59
(dp117
g61
((lp118
g63
aI01
tp119
sg65
((lp120
g67
ag67
aNtp121
sg69
((lp122
g71
aI00
tp123
sg73
((lp124
g75
aI01
tp125
sg77
((lp126
g79
aI01
tp127
sg81
((lp128
g79
aI01
tp129
sg84
((lp130
g75
aI01
tp131
ssg87
(lp132
S'ConsXTREME'
p133
ag67
asg89
S'No Ribs Either'
p134
sg91
I00
sbsS'rage'
p135
g0
(g55
g2
Ntp136
Rp137
(dp138
g59
(dp139
g61
((lp140
g63
aI01
tp141
sg65
((lp142
g67
ag67
aNtp143
sg69
((lp144
g71
aI00
tp145
sg73
((lp146
g75
aI01
tp147
sg77
((lp148
g79
aI01
tp149
sg81
((lp150
g79
aI01
tp151
sg84
((lp152
g75
aI01
tp153
ssg87
(lp154
sg89
S'RAGE'
p155
sg91
I00
sbsS'exhausted'
p156
g0
(g55
g2
Ntp157
Rp158
(dp159
g59
(dp160
g61
((lp161
g63
aI01
tp162
sg65
((lp163
g67
ag67
aNtp164
sg69
((lp165
g71
aI00
tp166
sg73
((lp167
g75
aI01
tp168
sg77
((lp169
g79
aI01
tp170
sg81
((lp171
g79
aI01
tp172
sg84
((lp173
g75
aI01
tp174
ssg87
(lp175
g79
asg89
S'Exhausted'
p176
sg91
I01
sbsS'pinning shot'
p177
g0
(g55
g2
Ntp178
Rp179
(dp180
g59
(dp181
g61
((lp182
g63
aI01
tp183
sg65
((lp184
g67
ag67
aNtp185
sg69
((lp186
g71
aI00
tp187
sg73
((lp188
g75
aI01
tp189
sg77
((lp190
g79
aI01
tp191
sg81
((lp192
g79
aI01
tp193
sg84
((lp194
g75
aI01
tp195
ssg87
(lp196
g67
asg89
S'pinning shot'
p197
sg91
I00
sbsS'right arm pinned'
p198
g0
(g55
g2
Ntp199
Rp200
(dp201
g59
(dp202
g61
((lp203
g63
aI01
tp204
sg65
((lp205
g67
ag67
aNtp206
sg69
((lp207
g71
aI00
tp208
sg73
((lp209
g75
aI01
tp210
sg77
((lp211
g79
aI01
tp212
sg81
((lp213
g79
aI01
tp214
sg84
((lp215
g75
aI01
tp216
ssg87
(lp217
g67
asg89
S'right arm pinned'
p218
sg91
I00
sbsS'on her bony ass'
p219
g0
(g55
g2
Ntp220
Rp221
(dp222
g59
(dp223
g61
((lp224
g63
aI01
tp225
sg65
((lp226
g67
ag67
aNtp227
sg69
((lp228
g71
aI00
tp229
sg73
((lp230
g75
aI01
tp231
sg77
((lp232
g79
aI01
tp233
sg81
((lp234
g79
aI01
tp235
sg84
((lp236
g75
aI01
tp237
ssg87
(lp238
g67
asg89
S'On Her Bony Ass'
p239
sg91
I00
sbsS'for shame'
p240
g0
(g55
g2
Ntp241
Rp242
(dp243
g59
(dp244
g61
((lp245
g63
aI01
tp246
sg65
((lp247
g67
ag67
aNtp248
sg69
((lp249
g71
aI00
tp250
sg73
((lp251
g75
aI01
tp252
sg77
((lp253
g79
aI01
tp254
sg81
((lp255
g79
aI01
tp256
sg84
((lp257
g75
aI01
tp258
ssg87
(lp259
g67
asg89
S'for shame'
p260
sg91
I00
sbsS'confusing aafterimages dammit!'
p261
g0
(g55
g2
Ntp262
Rp263
(dp264
g59
(dp265
g61
((lp266
g63
aI01
tp267
sg65
((lp268
g67
ag67
aNtp269
sg69
((lp270
g71
aI00
tp271
sg73
((lp272
g75
aI01
tp273
sg77
((lp274
g79
aI01
tp275
sg81
((lp276
g79
aI01
tp277
sg84
((lp278
g75
aI01
tp279
ssg87
(lp280
sg89
S'Confusing AAFTERIMAGES DAMMIT!'
p281
sg91
I00
sbsS'neck exposed'
p282
g0
(g55
g2
Ntp283
Rp284
(dp285
g59
(dp286
g61
((lp287
g63
aI01
tp288
sg65
((lp289
g67
ag67
aNtp290
sg69
((lp291
g71
aI00
tp292
sg73
((lp293
g75
aI01
tp294
sg77
((lp295
g79
aI01
tp296
sg81
((lp297
g79
aI01
tp298
sg84
((lp299
g75
aI01
tp300
ssg87
(lp301
g67
asg89
S'neck exposed'
p302
sg91
I00
sbsS'blinded by debris'
p303
g0
(g55
g2
Ntp304
Rp305
(dp306
g59
(dp307
g61
((lp308
g63
aI01
tp309
sg65
((lp310
g67
ag67
aNtp311
sg69
((lp312
g71
aI00
tp313
sg73
((lp314
g75
aI01
tp315
sg77
((lp316
g79
aI01
tp317
sg81
((lp318
g79
aI01
tp319
sg84
((lp320
g75
aI01
tp321
ssg87
(lp322
sg89
S'Blinded by Debris'
p323
sg91
I00
sbsS'left arm pinned'
p324
g0
(g55
g2
Ntp325
Rp326
(dp327
g59
(dp328
g61
((lp329
g63
aI01
tp330
sg65
((lp331
g67
ag67
aNtp332
sg69
((lp333
g71
aI00
tp334
sg73
((lp335
g75
aI01
tp336
sg77
((lp337
g79
aI01
tp338
sg81
((lp339
g79
aI01
tp340
sg84
((lp341
g75
aI01
tp342
ssg87
(lp343
g67
asg89
S'left arm pinned'
p344
sg91
I00
sbsS'no flesh'
p345
g0
(g55
g2
Ntp346
Rp347
(dp348
g59
(dp349
g61
((lp350
g63
aI01
tp351
sg65
((lp352
g67
ag67
aNtp353
sg69
((lp354
g71
aI00
tp355
sg73
((lp356
g75
aI01
tp357
sg77
((lp358
g79
aI01
tp359
sg81
((lp360
g79
aI01
tp361
sg84
((lp362
g75
aI01
tp363
ssg87
(lp364
g75
asg89
S'No Flesh'
p365
sg91
I01
sbssg29
S'Demeter'
p366
sS'NPC'
p367
I01
sbI7
sg0
(g13
g2
Ntp368
Rp369
(dp370
Vstress
p371
(dp372
Vp
p373
g0
(g20
g2
Ntp374
Rp375
(dp376
Vboxes
p377
I3
sVchecked
p378
(lp379
I1
asVshortname
p380
VP
p381
sVname
p382
VPhysical
p383
sVpersist
p384
I00
sbsVs
p385
g0
(g20
g2
Ntp386
Rp387
(dp388
g377
I3
sg378
(lp389
sg380
VS
p390
sg382
VSocial
p391
sg384
I00
sbsVm
p392
g0
(g20
g2
Ntp393
Rp394
(dp395
g377
I4
sg378
(lp396
I4
aI2
asg380
VM
p397
sg382
VMental
p398
sg384
I00
sbsS'h'
p399
g0
(g20
g2
Ntp400
Rp401
(dp402
S'boxes'
p403
I6
sS'checked'
p404
(lp405
sS'shortname'
p406
S'H'
p407
sS'name'
p408
S'Hunger'
p409
sS'persist'
p410
I00
sbssVfate
p411
g0
(g47
g2
Ntp412
Rp413
(dp414
g411
I1
sVrefresh
p415
I1
sbsVaspects
p416
(dp417
S'nosebleed'
p418
g0
(g55
g2
Ntp419
Rp420
(dp421
S'flag_transformers'
p422
(dp423
S'ConsMild'
p424
((lp425
S'mild'
p426
aI01
tp427
sS'style'
p428
((lp429
S'#'
p430
ag430
aNtp431
sS'fragile'
p432
((lp433
S'f'
p434
aI00
tp435
sS'ConsSev'
p436
((lp437
S'severe'
p438
aI01
tp439
sS'ConsMod'
p440
((lp441
S'moderate'
p442
aI01
tp443
sS'ConsModerate'
p444
((lp445
g442
aI01
tp446
sS'ConsSevere'
p447
((lp448
g438
aI01
tp449
ssS'flags'
p450
(lp451
g426
ag430
asS'name'
p452
S'Nosebleed'
p453
sS'persist'
p454
I01
sbsS'rage'
p455
g0
(g55
g2
Ntp456
Rp457
(dp458
g59
(dp459
g61
((lp460
g63
aI01
tp461
sg65
((lp462
g67
ag67
aNtp463
sg69
((lp464
g71
aI00
tp465
sg73
((lp466
g75
aI01
tp467
sg77
((lp468
g79
aI01
tp469
sg81
((lp470
g79
aI01
tp471
sg84
((lp472
g75
aI01
tp473
ssg87
(lp474
g67
asg89
S'RAGE'
p475
sg91
I00
sbsS'clear headed and ready to rock'
p476
g0
(g55
g2
Ntp477
Rp478
(dp479
g59
(dp480
g61
((lp481
g63
aI01
tp482
sg65
((lp483
g67
ag67
aNtp484
sg69
((lp485
g71
aI00
tp486
sg73
((lp487
g75
aI01
tp488
sg77
((lp489
g79
aI01
tp490
sg81
((lp491
g79
aI01
tp492
sg84
((lp493
g75
aI01
tp494
ssg87
(lp495
g67
ag67
asg89
S'Clear Headed and Ready to Rock'
p496
sg91
I00
sbsS'zippo'
p497
g0
(g55
g2
Ntp498
Rp499
(dp500
g422
(dp501
g424
((lp502
g426
aI01
tp503
sg428
((lp504
g430
ag430
aNtp505
sg432
((lp506
g434
aI00
tp507
sg436
((lp508
g438
aI01
tp509
sg440
((lp510
g442
aI01
tp511
sg444
((lp512
g442
aI01
tp513
sg447
((lp514
g438
aI01
tp515
ssg450
(lp516
sg452
S'Zippo'
p517
sg454
I00
sbssg382
VHawthorne
p518
sVNPC
p519
I00
sbI7
sg0
(g13
g2
Ntp520
Rp521
(dp522
g371
(dp523
Vp
p524
g0
(g20
g2
Ntp525
Rp526
(dp527
g377
I4
sg378
(lp528
I2
aI-2
aI3
asg380
g381
sg382
g383
sg384
I00
sbsVs
p529
g0
(g20
g2
Ntp530
Rp531
(dp532
g377
I2
sg378
(lp533
sg380
g390
sg382
g391
sg384
I00
sbsVm
p534
g0
(g20
g2
Ntp535
Rp536
(dp537
g377
I3
sg378
(lp538
sg380
g397
sg382
g398
sg384
I00
sbssg411
g0
(g47
g2
Ntp539
Rp540
(dp541
g411
I0
sg415
I6
sbsg416
(dp542
S'f-ing branches'
p543
g0
(g55
g2
Ntp544
Rp545
(dp546
g59
(dp547
g61
((lp548
g63
aI01
tp549
sg65
((lp550
g67
ag67
aNtp551
sg69
((lp552
g71
aI00
tp553
sg73
((lp554
g75
aI01
tp555
sg77
((lp556
g79
aI01
tp557
sg81
((lp558
g79
aI01
tp559
sg84
((lp560
g75
aI01
tp561
ssg87
(lp562
S'consmild'
p563
ag67
asg89
S'f-ing branches'
p564
sg91
I00
sbsS'favorite knife'
p565
g0
(g55
g2
Ntp566
Rp567
(dp568
g59
(dp569
g61
((lp570
g63
aI01
tp571
sg65
((lp572
g67
ag67
aNtp573
sg69
((lp574
g71
aI00
tp575
sg73
((lp576
g75
aI01
tp577
sg77
((lp578
g79
aI01
tp579
sg81
((lp580
g79
aI01
tp581
sg84
((lp582
g75
aI01
tp583
ssg87
(lp584
sg89
S'Favorite Knife'
p585
sg91
I00
sbssg382
VPatrice
p586
sg519
I00
sbI16
sg0
(g13
g2
Ntp587
Rp588
(dp589
g17
(dp590
S'p'
p591
g0
(g20
g2
Ntp592
Rp593
(dp594
g24
I2
sg25
(lp595
sg27
S'P'
p596
sg29
g30
sg31
I00
sbsS's'
p597
g0
(g20
g2
Ntp598
Rp599
(dp600
g24
I2
sg25
(lp601
sg27
S'S'
p602
sg29
g38
sg31
I00
sbsS'm'
p603
g0
(g20
g2
Ntp604
Rp605
(dp606
g24
I2
sg25
(lp607
sg27
S'M'
p608
sg29
g45
sg31
I00
sbssg46
g0
(g47
g2
Ntp609
Rp610
(dp611
g46
I3
sg51
I3
sbsg52
(dp612
sg29
S'Bugs'
p613
sg367
I01
sbI4
sg0
(g13
g2
Ntp614
Rp615
(dp616
g371
(dp617
Vp
p618
g0
(g20
g2
Ntp619
Rp620
(dp621
g377
I4
sg378
(lp622
sg380
g381
sg382
g383
sg384
I00
sbsVs
p623
g0
(g20
g2
Ntp624
Rp625
(dp626
g377
I2
sg378
(lp627
sg380
g390
sg382
g391
sg384
I00
sbsVm
p628
g0
(g20
g2
Ntp629
Rp630
(dp631
g377
I3
sg378
(lp632
sg380
g397
sg382
g398
sg384
I00
sbssg411
g0
(g47
g2
Ntp633
Rp634
(dp635
g411
I6
sg415
I11
sbsg416
(dp636
S'torchlight'
p637
g0
(g55
g2
Ntp638
Rp639
(dp640
S'flag_transformers'
p641
(dp642
S'ConsMild'
p643
((lp644
S'mild'
p645
aI01
tp646
sS'style'
p647
((lp648
S'#'
p649
ag649
aNtp650
sS'fragile'
p651
((lp652
S'f'
p653
aI00
tp654
sS'ConsSev'
p655
((lp656
S'severe'
p657
aI01
tp658
sS'ConsMod'
p659
((lp660
S'moderate'
p661
aI01
tp662
sS'ConsModerate'
p663
((lp664
g661
aI01
tp665
sS'ConsSevere'
p666
((lp667
g657
aI01
tp668
ssS'flags'
p669
(lp670
sg29
S'torchlight'
p671
sg31
I00
sbsS'friend power'
p672
g0
(g55
g2
Ntp673
Rp674
(dp675
g59
(dp676
g61
((lp677
g63
aI01
tp678
sg65
((lp679
g67
ag67
aNtp680
sg69
((lp681
g71
aI00
tp682
sg73
((lp683
g75
aI01
tp684
sg77
((lp685
g79
aI01
tp686
sg81
((lp687
g79
aI01
tp688
sg84
((lp689
g75
aI01
tp690
ssg87
(lp691
sg89
S'Friend Power'
p692
sg91
I00
sbssg382
VFenrir
p693
sg519
I00
sbI6
sg0
(g13
g2
Ntp694
Rp695
(dp696
g371
(dp697
Vp
p698
g0
(g20
g2
Ntp699
Rp700
(dp701
g377
I8
sg378
(lp702
I1
aI4
aI3
aI6
aI7
asg380
g381
sg382
g383
sg384
I00
sbsVs
p703
g0
(g20
g2
Ntp704
Rp705
(dp706
g377
I3
sg378
(lp707
sg380
g390
sg382
g391
sg384
I00
sbsVm
p708
g0
(g20
g2
Ntp709
Rp710
(dp711
g377
I4
sg378
(lp712
I1
aI2
aI3
aI4
asg380
g397
sg382
g398
sg384
I00
sbssg411
g0
(g47
g2
Ntp713
Rp714
(dp715
g411
I2
sg415
I1
sbsg416
(dp716
S'wrathful power'
p717
g0
(g55
g2
Ntp718
Rp719
(dp720
g422
(dp721
g424
((lp722
g426
aI01
tp723
sg428
((lp724
g430
ag430
aNtp725
sg432
((lp726
g434
aI00
tp727
sg436
((lp728
g438
aI01
tp729
sg440
((lp730
g442
aI01
tp731
sg444
((lp732
g442
aI01
tp733
sg447
((lp734
g438
aI01
tp735
ssg450
(lp736
sg452
S'wrathful power'
p737
sg454
I00
sbsS'empowered'
p738
g0
(g55
g2
Ntp739
Rp740
(dp741
g59
(dp742
g61
((lp743
g63
aI01
tp744
sg65
((lp745
g67
ag67
aNtp746
sg69
((lp747
g71
aI00
tp748
sg73
((lp749
g75
aI01
tp750
sg77
((lp751
g79
aI01
tp752
sg81
((lp753
g79
aI01
tp754
sg84
((lp755
g75
aI01
tp756
ssg87
(lp757
sg89
S'Empowered'
p758
sg91
I00
sbsS'bull headed'
p759
g0
(g55
g2
Ntp760
Rp761
(dp762
g59
(dp763
g61
((lp764
g63
aI01
tp765
sg65
((lp766
g67
ag67
aNtp767
sg69
((lp768
g71
aI00
tp769
sg73
((lp770
g75
aI01
tp771
sg77
((lp772
g79
aI01
tp773
sg81
((lp774
g79
aI01
tp775
sg84
((lp776
g75
aI01
tp777
ssg87
(lp778
g79
ag67
asg89
S'bull headed'
p779
sg91
I01
sbssg382
VCalaca
p780
sg519
I00
sbI3
sg0
(g13
g2
Ntp781
Rp782
(dp783
g371
(dp784
Vp
p785
g0
(g20
g2
Ntp786
Rp787
(dp788
g377
I3
sg378
(lp789
I3
asg380
g381
sg382
g383
sg384
I00
sbsVs
p790
g0
(g20
g2
Ntp791
Rp792
(dp793
g377
I2
sg378
(lp794
sg380
g390
sg382
g391
sg384
I00
sbsVm
p795
g0
(g20
g2
Ntp796
Rp797
(dp798
g377
I3
sg378
(lp799
sg380
g397
sg382
g398
sg384
I00
sbssg411
g0
(g47
g2
Ntp800
Rp801
(dp802
g411
I2
sg415
I6
sbsg416
(dp803
S'watching our backs'
p804
g0
(g55
g2
Ntp805
Rp806
(dp807
g641
(dp808
g643
((lp809
g645
aI01
tp810
sg647
((lp811
g649
ag649
aNtp812
sg651
((lp813
g653
aI00
tp814
sg655
((lp815
g657
aI01
tp816
sg659
((lp817
g661
aI01
tp818
sg663
((lp819
g661
aI01
tp820
sg666
((lp821
g657
aI01
tp822
ssg669
(lp823
sg29
S'watching our backs'
p824
sg31
I00
sbsS'these arrows are bull tipped'
p825
g0
(g55
g2
Ntp826
Rp827
(dp828
g59
(dp829
g61
((lp830
g63
aI01
tp831
sg65
((lp832
g67
ag67
aNtp833
sg69
((lp834
g71
aI00
tp835
sg73
((lp836
g75
aI01
tp837
sg77
((lp838
g79
aI01
tp839
sg81
((lp840
g79
aI01
tp841
sg84
((lp842
g75
aI01
tp843
ssg87
(lp844
sg89
S'these arrows are bull tipped'
p845
sg91
I00
sbssg382
VHart
p846
sg519
I00
sbI7
sg0
(g13
g2
Ntp847
Rp848
(dp849
g17
(dp850
S'p'
p851
g0
(g20
g2
Ntp852
Rp853
(dp854
g24
I2
sg25
(lp855
sg27
S'P'
p856
sg29
g30
sg31
I00
sbsS's'
p857
g0
(g20
g2
Ntp858
Rp859
(dp860
g24
I2
sg25
(lp861
sg27
S'S'
p862
sg29
g38
sg31
I00
sbsS'm'
p863
g0
(g20
g2
Ntp864
Rp865
(dp866
g24
I2
sg25
(lp867
sg27
S'M'
p868
sg29
g45
sg31
I00
sbssg46
g0
(g47
g2
Ntp869
Rp870
(dp871
g46
I3
sg51
I3
sbsg52
(dp872
sg29
S'Elf'
p873
sg367
I01
sbI5
sg0
(g13
g2
Ntp874
Rp875
(dp876
g371
(dp877
Vp
p878
g0
(g20
g2
Ntp879
Rp880
(dp881
g377
I6
sg378
(lp882
I2
aI5
asg380
g381
sg382
g383
sg384
I00
sbsVs
p883
g0
(g20
g2
Ntp884
Rp885
(dp886
g377
I3
sg378
(lp887
sg380
g390
sg382
g391
sg384
I00
sbsVm
p888
g0
(g20
g2
Ntp889
Rp890
(dp891
g377
I3
sg378
(lp892
sg380
g397
sg382
g398
sg384
I00
sbssg411
g0
(g47
g2
Ntp893
Rp894
(dp895
g411
I6
sg415
I1
sbsg416
(dp896
S'scent of the paranormal'
p897
g0
(g55
g2
Ntp898
Rp899
(dp900
g59
(dp901
g61
((lp902
g63
aI01
tp903
sg65
((lp904
g67
ag67
aNtp905
sg69
((lp906
g71
aI00
tp907
sg73
((lp908
g75
aI01
tp909
sg77
((lp910
g79
aI01
tp911
sg81
((lp912
g79
aI01
tp913
sg84
((lp914
g75
aI01
tp915
ssg87
(lp916
sg89
S'Scent of the Paranormal'
p917
sg91
I00
sbsS'ready to pounce'
p918
g0
(g55
g2
Ntp919
Rp920
(dp921
g59
(dp922
g61
((lp923
g63
aI01
tp924
sg65
((lp925
g67
ag67
aNtp926
sg69
((lp927
g71
aI00
tp928
sg73
((lp929
g75
aI01
tp930
sg77
((lp931
g79
aI01
tp932
sg81
((lp933
g79
aI01
tp934
sg84
((lp935
g75
aI01
tp936
ssg87
(lp937
sg89
S'Ready to Pounce'
p938
sg91
I00
sbsS'defensive posture'
p939
g0
(g55
g2
Ntp940
Rp941
(dp942
g641
(dp943
g643
((lp944
g645
aI01
tp945
sg647
((lp946
g649
ag649
aNtp947
sg651
((lp948
g653
aI00
tp949
sg655
((lp950
g657
aI01
tp951
sg659
((lp952
g661
aI01
tp953
sg663
((lp954
g661
aI01
tp955
sg666
((lp956
g657
aI01
tp957
ssg669
(lp958
sg29
S'Defensive Posture'
p959
sg31
I00
sbsS'eyes on the swordsman'
p960
g0
(g55
g2
Ntp961
Rp962
(dp963
g59
(dp964
g61
((lp965
g63
aI01
tp966
sg65
((lp967
g67
ag67
aNtp968
sg69
((lp969
g71
aI00
tp970
sg73
((lp971
g75
aI01
tp972
sg77
((lp973
g79
aI01
tp974
sg81
((lp975
g79
aI01
tp976
sg84
((lp977
g75
aI01
tp978
ssg87
(lp979
g67
ag67
asg89
S'Eyes on the Swordsman'
p980
sg91
I00
sbssg382
VDarewolf
p981
sg519
I00
sbI10
sg0
(g13
g2
Ntp982
Rp983
(dp984
g17
(dp985
S'p'
p986
g0
(g20
g2
Ntp987
Rp988
(dp989
g24
I2
sg25
(lp990
sg27
S'P'
p991
sg29
g30
sg31
I00
sbsS's'
p992
g0
(g20
g2
Ntp993
Rp994
(dp995
g24
I2
sg25
(lp996
sg27
S'S'
p997
sg29
g38
sg31
I00
sbsS'm'
p998
g0
(g20
g2
Ntp999
Rp1000
(dp1001
g24
I2
sg25
(lp1002
sg27
S'M'
p1003
sg29
g45
sg31
I00
sbssg46
g0
(g47
g2
Ntp1004
Rp1005
(dp1006
g46
I0
sg51
I3
sbsg52
(dp1007
S'bleeding'
p1008
g0
(g55
g2
Ntp1009
Rp1010
(dp1011
g422
(dp1012
g424
((lp1013
g426
aI01
tp1014
sg428
((lp1015
g430
ag430
aNtp1016
sg432
((lp1017
g434
aI00
tp1018
sg436
((lp1019
g438
aI01
tp1020
sg440
((lp1021
g442
aI01
tp1022
sg444
((lp1023
g442
aI01
tp1024
sg447
((lp1025
g438
aI01
tp1026
ssg450
(lp1027
g426
ag430
asg452
S'Bleeding'
p1028
sg454
I01
sbsS'arterial spray'
p1029
g0
(g55
g2
Ntp1030
Rp1031
(dp1032
g422
(dp1033
g424
((lp1034
g426
aI01
tp1035
sg428
((lp1036
g430
ag430
aNtp1037
sg432
((lp1038
g434
aI00
tp1039
sg436
((lp1040
g438
aI01
tp1041
sg440
((lp1042
g442
aI01
tp1043
sg444
((lp1044
g442
aI01
tp1045
sg447
((lp1046
g438
aI01
tp1047
ssg450
(lp1048
g442
ag430
asg452
S'Arterial Spray'
p1049
sg454
I01
sbssg29
S'Goblin'
p1050
sg367
I01
sbI4
sg0
(g13
g2
Ntp1051
Rp1052
(dp1053
g371
(dp1054
Vp
p1055
g0
(g20
g2
Ntp1056
Rp1057
(dp1058
g377
I4
sg378
(lp1059
I3
asg380
g381
sg382
g383
sg384
I00
sbsVs
p1060
g0
(g20
g2
Ntp1061
Rp1062
(dp1063
g377
I4
sg378
(lp1064
sg380
g390
sg382
g391
sg384
I00
sbsVm
p1065
g0
(g20
g2
Ntp1066
Rp1067
(dp1068
g377
I2
sg378
(lp1069
sg380
g397
sg382
g398
sg384
I00
sbssg411
g0
(g47
g2
Ntp1070
Rp1071
(dp1072
g411
I0
sg415
I1
sbsg416
(dp1073
S'death walks with the swordsman'
p1074
g0
(g55
g2
Ntp1075
Rp1076
(dp1077
g641
(dp1078
g643
((lp1079
g645
aI01
tp1080
sg647
((lp1081
g649
ag649
aNtp1082
sg651
((lp1083
g653
aI00
tp1084
sg655
((lp1085
g657
aI01
tp1086
sg659
((lp1087
g661
aI01
tp1088
sg663
((lp1089
g661
aI01
tp1090
sg666
((lp1091
g657
aI01
tp1092
ssg669
(lp1093
sg29
S'Death Walks With The Swordsman'
p1094
sg31
I00
sbsS'arrow to the knee'
p1095
g0
(g55
g2
Ntp1096
Rp1097
(dp1098
g641
(dp1099
g643
((lp1100
g645
aI01
tp1101
sg647
((lp1102
g649
ag649
aNtp1103
sg651
((lp1104
g653
aI00
tp1105
sg655
((lp1106
g657
aI01
tp1107
sg659
((lp1108
g661
aI01
tp1109
sg663
((lp1110
g661
aI01
tp1111
sg666
((lp1112
g657
aI01
tp1113
ssg669
(lp1114
g645
asg29
S'arrow to the knee'
p1115
sg31
I01
sbsS'attack stance'
p1116
g0
(g55
g2
Ntp1117
Rp1118
(dp1119
g59
(dp1120
g61
((lp1121
g63
aI01
tp1122
sg65
((lp1123
g67
ag67
aNtp1124
sg69
((lp1125
g71
aI00
tp1126
sg73
((lp1127
g75
aI01
tp1128
sg77
((lp1129
g79
aI01
tp1130
sg81
((lp1131
g79
aI01
tp1132
sg84
((lp1133
g75
aI01
tp1134
ssg87
(lp1135
sg89
S'Attack Stance'
p1136
sg91
I00
sbsS'on my word'
p1137
g0
(g55
g2
Ntp1138
Rp1139
(dp1140
g59
(dp1141
g61
((lp1142
g63
aI01
tp1143
sg65
((lp1144
g67
ag67
aNtp1145
sg69
((lp1146
g71
aI00
tp1147
sg73
((lp1148
g75
aI01
tp1149
sg77
((lp1150
g79
aI01
tp1151
sg81
((lp1152
g79
aI01
tp1153
sg84
((lp1154
g75
aI01
tp1155
ssg87
(lp1156
sg89
S'On My Word'
p1157
sg91
I00
sbssg382
VCedric
p1158
sg519
I00
sbI18
sNI2
sg0
(g13
g2
Ntp1159
Rp1160
(dp1161
g371
(dp1162
Vp
p1163
g0
(g20
g2
Ntp1164
Rp1165
(dp1166
g377
I4
sg378
(lp1167
sg380
g381
sg382
g383
sg384
I00
sbsVs
p1168
g0
(g20
g2
Ntp1169
Rp1170
(dp1171
g377
I3
sg378
(lp1172
sg380
g390
sg382
g391
sg384
I00
sbsVm
p1173
g0
(g20
g2
Ntp1174
Rp1175
(dp1176
g377
I4
sg378
(lp1177
sg380
g397
sg382
g398
sg384
I00
sbssg411
g0
(g47
g2
Ntp1178
Rp1179
(dp1180
g411
I2
sg415
I1
sbsg416
(dp1181
S'bug bait'
p1182
g0
(g55
g2
Ntp1183
Rp1184
(dp1185
g422
(dp1186
g424
((lp1187
g426
aI01
tp1188
sg428
((lp1189
g430
ag430
aNtp1190
sg432
((lp1191
g434
aI00
tp1192
sg436
((lp1193
g438
aI01
tp1194
sg440
((lp1195
g442
aI01
tp1196
sg444
((lp1197
g442
aI01
tp1198
sg447
((lp1199
g438
aI01
tp1200
ssg450
(lp1201
g430
asg452
S'Bug Bait'
p1202
sg454
I00
sbssg382
VPablo
p1203
sg519
I00
sbI-4
sg0
(g13
g2
Ntp1204
Rp1205
(dp1206
g17
(dp1207
S'p'
p1208
g0
(g20
g2
Ntp1209
Rp1210
(dp1211
g24
I2
sg25
(lp1212
sg27
S'P'
p1213
sg29
g30
sg31
I00
sbsS's'
p1214
g0
(g20
g2
Ntp1215
Rp1216
(dp1217
g24
I2
sg25
(lp1218
sg27
S'S'
p1219
sg29
g38
sg31
I00
sbsS'm'
p1220
g0
(g20
g2
Ntp1221
Rp1222
(dp1223
g24
I2
sg25
(lp1224
sg27
S'M'
p1225
sg29
g45
sg31
I00
sbssg46
g0
(g47
g2
Ntp1226
Rp1227
(dp1228
g46
I3
sg51
I3
sbsg52
(dp1229
S'burning'
p1230
g0
(g55
g2
Ntp1231
Rp1232
(dp1233
g422
(dp1234
g424
((lp1235
g426
aI01
tp1236
sg428
((lp1237
g430
ag430
aNtp1238
sg432
((lp1239
g434
aI00
tp1240
sg436
((lp1241
g438
aI01
tp1242
sg440
((lp1243
g442
aI01
tp1244
sg444
((lp1245
g442
aI01
tp1246
sg447
((lp1247
g438
aI01
tp1248
ssg450
(lp1249
sg452
S'Burning'
p1250
sg454
I00
sbsS'more burning'
p1251
g0
(g55
g2
Ntp1252
Rp1253
(dp1254
g422
(dp1255
g424
((lp1256
g426
aI01
tp1257
sg428
((lp1258
g430
ag430
aNtp1259
sg432
((lp1260
g434
aI00
tp1261
sg436
((lp1262
g438
aI01
tp1263
sg440
((lp1264
g442
aI01
tp1265
sg444
((lp1266
g442
aI01
tp1267
sg447
((lp1268
g438
aI01
tp1269
ssg450
(lp1270
g430
asg452
S'More Burning'
p1271
sg454
I00
sbssg29
S'Panthropods'
p1272
sg367
I01
sbI6
sg0
(g13
g2
Ntp1273
Rp1274
(dp1275
g17
(dp1276
S'p'
p1277
g0
(g20
g2
Ntp1278
Rp1279
(dp1280
g24
I2
sg25
(lp1281
sg27
S'P'
p1282
sg29
g30
sg31
I00
sbsS's'
p1283
g0
(g20
g2
Ntp1284
Rp1285
(dp1286
g24
I2
sg25
(lp1287
sg27
S'S'
p1288
sg29
g38
sg31
I00
sbsS'm'
p1289
g0
(g20
g2
Ntp1290
Rp1291
(dp1292
g24
I2
sg25
(lp1293
sg27
S'M'
p1294
sg29
g45
sg31
I00
sbssg46
g0
(g47
g2
Ntp1295
Rp1296
(dp1297
g46
I2
sg51
I3
sbsg52
(dp1298
S'betraying her nature'
p1299
g0
(g55
g2
Ntp1300
Rp1301
(dp1302
g59
(dp1303
g61
((lp1304
g63
aI01
tp1305
sg65
((lp1306
g67
ag67
aNtp1307
sg69
((lp1308
g71
aI00
tp1309
sg73
((lp1310
g75
aI01
tp1311
sg77
((lp1312
g79
aI01
tp1313
sg81
((lp1314
g79
aI01
tp1315
sg84
((lp1316
g75
aI01
tp1317
ssg87
(lp1318
sg89
S'Betraying Her Nature'
p1319
sg91
I00
sbsS'friendly threat'
p1320
g0
(g55
g2
Ntp1321
Rp1322
(dp1323
g59
(dp1324
g61
((lp1325
g63
aI01
tp1326
sg65
((lp1327
g67
ag67
aNtp1328
sg69
((lp1329
g71
aI00
tp1330
sg73
((lp1331
g75
aI01
tp1332
sg77
((lp1333
g79
aI01
tp1334
sg81
((lp1335
g79
aI01
tp1336
sg84
((lp1337
g75
aI01
tp1338
ssg87
(lp1339
sg89
S'Friendly Threat'
p1340
sg91
I00
sbsS'wtf'
p1341
g0
(g55
g2
Ntp1342
Rp1343
(dp1344
g59
(dp1345
g61
((lp1346
g63
aI01
tp1347
sg65
((lp1348
g67
ag67
aNtp1349
sg69
((lp1350
g71
aI00
tp1351
sg73
((lp1352
g75
aI01
tp1353
sg77
((lp1354
g79
aI01
tp1355
sg81
((lp1356
g79
aI01
tp1357
sg84
((lp1358
g75
aI01
tp1359
ssg87
(lp1360
sg89
S'WTF'
p1361
sg91
I00
sbssg29
S'Persephone'
p1362
sg367
I01
sbI7
ssbsVconfig
p1363
(dp1364
Vpickle
p1365
Vsc.pkl
p1366
sVrevisionfile
p1367
Vscrevs.yml
p1368
sVtitle
p1369
VDFRPG Santa Cruz Bot
p1370
ssVlookup
p1371
g0
(cdfrpgmon2
Lookup
p1372
g2
Ntp1373
Rp1374
(dp1375
V_nicks
p1376
(dp1377
S'Bruiser'
p1378
S'Van'
p1379
sg366
S'Demeter'
p1380
sS'Peregrine'
p1381
S'Darewolf'
p1382
sg518
S'Hawthorne'
p1383
sS'Jan'
p1384
S'Jan'
p1385
sS'NPC'
p1386
S'Mike'
p1387
sS'Lycan'
p1388
S'Lycan2'
p1389
sS'Leader'
p1390
S'Steven'
p1391
sS'Bruisers'
p1392
S'Bruiser'
p1393
sS'Mike'
p1394
S'Keljan'
p1395
sS'Scarecrow'
p1396
S'GiantScarecrow'
p1397
sS'Minotaurs'
p1398
S'Demeter'
p1399
sg586
g586
sS'SCENE'
p1400
S'med'
p1401
sS'Warden'
p1402
S'Warden'
p1403
sS'Kat'
p1404
S'Kat'
p1405
sg1158
g1158
sg780
S'Pablo'
p1406
sVDare
p1407
S'Dare'
p1408
sS'Assassins'
p1409
S'Assassins'
p1410
sg693
S'Fen'
p1411
sS'Garou'
p1412
S'Garou'
p1413
sS'Susan'
p1414
S'Fen'
p1415
sg873
S'Elf'
p1416
sS'Puft'
p1417
S'MarshmallowMan'
p1418
sS'Bot'
p1419
S'Dare'
p1420
sg613
S'Bugs'
p1421
sS'Clown'
p1422
S'Clown'
p1423
sS'Galatea'
p1424
S'Galatea'
p1425
sS'Sparrows'
p1426
S'Kat'
p1427
sS'MagicDragon'
p1428
S'med'
p1429
sg1272
S'Panthropods'
p1430
sS'Goblin'
p1431
S'Goblin'
p1432
sS'Teresa'
p1433
S'Teresa'
p1434
sS'Scene'
p1435
S'Ghsdkgb'
p1436
sg981
S'Darewolf'
p1437
sS'Minotaur'
p1438
S'Persephone'
p1439
sS'Steven'
p1440
S'Steven'
p1441
sg846
g846
sg1362
S'Persephone'
p1442
sS'testNPC'
p1443
S'NPC2'
p1444
sg1203
S'Pablo'
p1445
ssV_aliases
p1446
(dp1447
S'demeter#nick'
p1448
g15
sS'ghsdkgb#nick'
p1449
g0
(g13
g2
Ntp1450
Rp1451
(dp1452
S'stress'
p1453
(dp1454
S'p'
p1455
g0
(g20
g2
Ntp1456
Rp1457
(dp1458
S'boxes'
p1459
I2
sS'checked'
p1460
(lp1461
sS'shortname'
p1462
S'P'
p1463
sS'name'
p1464
S'Physical'
p1465
sS'persist'
p1466
I00
sbsS's'
p1467
g0
(g20
g2
Ntp1468
Rp1469
(dp1470
g1459
I2
sg1460
(lp1471
sg1462
S'S'
p1472
sg1464
S'Social'
p1473
sg1466
I00
sbsS'm'
p1474
g0
(g20
g2
Ntp1475
Rp1476
(dp1477
g1459
I2
sg1460
(lp1478
sg1462
S'M'
p1479
sg1464
S'Mental'
p1480
sg1466
I00
sbssS'fate'
p1481
g0
(g47
g2
Ntp1482
Rp1483
(dp1484
g1481
I3
sS'refresh'
p1485
I3
sbsS'aspects'
p1486
(dp1487
S'light'
p1488
g0
(g55
g2
Ntp1489
Rp1490
(dp1491
g641
(dp1492
g643
((lp1493
g645
aI01
tp1494
sg647
((lp1495
g649
ag649
aNtp1496
sg651
((lp1497
g653
aI00
tp1498
sg655
((lp1499
g657
aI01
tp1500
sg659
((lp1501
g661
aI01
tp1502
sg663
((lp1503
g661
aI01
tp1504
sg666
((lp1505
g657
aI01
tp1506
ssg669
(lp1507
sg29
S'Light'
p1508
sg31
I00
sbsS'terrifying wolf howl'
p1509
g0
(g55
g2
Ntp1510
Rp1511
(dp1512
g641
(dp1513
g643
((lp1514
g645
aI01
tp1515
sg647
((lp1516
g649
ag649
aNtp1517
sg651
((lp1518
g653
aI00
tp1519
sg655
((lp1520
g657
aI01
tp1521
sg659
((lp1522
g661
aI01
tp1523
sg663
((lp1524
g661
aI01
tp1525
sg666
((lp1526
g657
aI01
tp1527
ssg669
(lp1528
sg29
S'Terrifying Wolf Howl'
p1529
sg31
I00
sbsS'rotting floors'
p1530
g0
(g55
g2
Ntp1531
Rp1532
(dp1533
g59
(dp1534
g61
((lp1535
g63
aI01
tp1536
sg65
((lp1537
g67
ag67
aNtp1538
sg69
((lp1539
g71
aI00
tp1540
sg73
((lp1541
g75
aI01
tp1542
sg77
((lp1543
g79
aI01
tp1544
sg81
((lp1545
g79
aI01
tp1546
sg84
((lp1547
g75
aI01
tp1548
ssg87
(lp1549
g67
asg89
S'Rotting Floors'
p1550
sg91
I00
sbssg1464
S'Scene'
p1551
sS'NPC'
p1552
I01
sbsVfenrir#nick
p1553
g615
sVhawthorne#nick
p1554
g369
sS'scene'
p1555
g1451
sVdarewolf
p1556
g875
sVcedric#nick
p1557
g1052
sVpablo
p1558
g1160
sVhart
p1559
g782
sS'persephone#nick'
p1560
g1274
sVdare#nick
p1561
g0
(g13
g2
Ntp1562
Rp1563
(dp1564
g371
(dp1565
Vp
p1566
g0
(g20
g2
Ntp1567
Rp1568
(dp1569
g377
I3
sg378
(lp1570
sg380
g381
sg382
g383
sg384
I00
sbsVs
p1571
g0
(g20
g2
Ntp1572
Rp1573
(dp1574
g377
I4
sg378
(lp1575
sg380
g390
sg382
g391
sg384
I00
sbsVm
p1576
g0
(g20
g2
Ntp1577
Rp1578
(dp1579
g377
I3
sg378
(lp1580
sg380
g397
sg382
g398
sg384
I00
sbssg411
g0
(g47
g2
Ntp1581
Rp1582
(dp1583
g411
I9
sg415
I1
sbsg416
(dp1584
sg382
g1407
sg519
I00
sbsS'minotaur'
p1585
g0
(g13
g2
Ntp1586
Rp1587
(dp1588
S'aspects'
p1589
(dp1590
sS'stress'
p1591
(dp1592
S'p'
p1593
g0
(g20
g2
Ntp1594
Rp1595
(dp1596
S'boxes'
p1597
I2
sS'shortname'
p1598
S'P'
p1599
sS'checked'
p1600
(lp1601
sg89
S'Physical'
p1602
sg91
I00
sbsS's'
p1603
g0
(g20
g2
Ntp1604
Rp1605
(dp1606
g1597
I2
sg1598
S'S'
p1607
sg1600
(lp1608
sg89
S'Social'
p1609
sg91
I00
sbsS'm'
p1610
g0
(g20
g2
Ntp1611
Rp1612
(dp1613
g1597
I2
sg1598
S'M'
p1614
sg1600
(lp1615
sg89
S'Mental'
p1616
sg91
I00
sbssS'fate'
p1617
g0
(g47
g2
Ntp1618
Rp1619
(dp1620
g1617
I3
sS'refresh'
p1621
I3
sbsg89
g1438
sS'NPC'
p1622
I01
sbsVcalaca
p1623
g695
sS'pat'
p1624
g521
sVpablo#nick
p1625
g695
sS'demeter'
p1626
g15
sS'fen'
p1627
g615
sS'mike'
p1628
g0
(g13
g2
Ntp1629
Rp1630
(dp1631
g1589
(dp1632
S'grabbing attention'
p1633
g0
(g55
g2
Ntp1634
Rp1635
(dp1636
g59
(dp1637
g61
((lp1638
g63
aI01
tp1639
sg65
((lp1640
g67
ag67
aNtp1641
sg69
((lp1642
g71
aI00
tp1643
sg73
((lp1644
g75
aI01
tp1645
sg77
((lp1646
g79
aI01
tp1647
sg81
((lp1648
g79
aI01
tp1649
sg84
((lp1650
g75
aI01
tp1651
ssg87
(lp1652
g67
asg89
S'Grabbing Attention'
p1653
sg91
I00
sbsS'zoned out'
p1654
g0
(g55
g2
Ntp1655
Rp1656
(dp1657
g59
(dp1658
g61
((lp1659
g63
aI01
tp1660
sg65
((lp1661
g67
ag67
aNtp1662
sg69
((lp1663
g71
aI00
tp1664
sg73
((lp1665
g75
aI01
tp1666
sg77
((lp1667
g79
aI01
tp1668
sg81
((lp1669
g79
aI01
tp1670
sg84
((lp1671
g75
aI01
tp1672
ssg87
(lp1673
g67
asg89
S'Zoned Out'
p1674
sg91
I00
sbssg1591
(dp1675
S'p'
p1676
g0
(g20
g2
Ntp1677
Rp1678
(dp1679
g1597
I2
sg1598
S'P'
p1680
sg1600
(lp1681
sg89
g1602
sg91
I00
sbsS's'
p1682
g0
(g20
g2
Ntp1683
Rp1684
(dp1685
g1597
I2
sg1598
S'S'
p1686
sg1600
(lp1687
sg89
g1609
sg91
I00
sbsS'm'
p1688
g0
(g20
g2
Ntp1689
Rp1690
(dp1691
g1597
I2
sg1598
S'M'
p1692
sg1600
(lp1693
sg89
g1616
sg91
I00
sbssg1617
g0
(g47
g2
Ntp1694
Rp1695
(dp1696
g1617
I3
sg1621
I3
sbsg89
S'Mike'
p1697
sg1622
I01
sbsVhart#nick
p1698
g782
sVpatrice#nick
p1699
g521
sS'ced'
p1700
g1052
sS'persephone'
p1701
g1274
sVhawthorne
p1702
g369
sVdarewolf#nick
p1703
g875
sS'annpc#nick'
p1704
g15
sVcedric
p1705
g1052
sS'hawk'
p1706
g369
sVcalaca#nick
p1707
g695
sVdare
p1708
g1563
sVfenrir
p1709
g615
sVpatrice
p1710
g521
sS'keljan#nick'
p1711
g1630
sS'fen#nick'
p1712
g615
sS'med#nick'
p1713
g615
sS'hawthorne_#nick'
p1714
g1274
ssVcharacters
p1715
(lp1716
g1052
ag1160
ag1563
ag369
ag521
ag782
ag615
ag695
ag875
ag1451
ag0
(g13
g2
Ntp1717
Rp1718
(dp1719
g1453
(dp1720
S'p'
p1721
g0
(g20
g2
Ntp1722
Rp1723
(dp1724
g1459
I2
sg1460
(lp1725
sg1462
S'P'
p1726
sg1464
g1465
sg1466
I00
sbsS's'
p1727
g0
(g20
g2
Ntp1728
Rp1729
(dp1730
g1459
I2
sg1460
(lp1731
sg1462
S'S'
p1732
sg1464
g1473
sg1466
I00
sbsS'm'
p1733
g0
(g20
g2
Ntp1734
Rp1735
(dp1736
g1459
I2
sg1460
(lp1737
sg1462
S'M'
p1738
sg1464
g1480
sg1466
I00
sbssg1481
g0
(g47
g2
Ntp1739
Rp1740
(dp1741
g1481
I3
sg1485
I3
sbsg1486
(dp1742
sg1464
S'purge'
p1743
sg1552
I01
sbag0
(g13
g2
Ntp1744
Rp1745
(dp1746
g1453
(dp1747
S'p'
p1748
g0
(g20
g2
Ntp1749
Rp1750
(dp1751
g1459
I2
sg1460
(lp1752
sg1462
S'P'
p1753
sg1464
g1465
sg1466
I00
sbsS's'
p1754
g0
(g20
g2
Ntp1755
Rp1756
(dp1757
g1459
I2
sg1460
(lp1758
sg1462
S'S'
p1759
sg1464
g1473
sg1466
I00
sbsS'm'
p1760
g0
(g20
g2
Ntp1761
Rp1762
(dp1763
g1459
I2
sg1460
(lp1764
sg1462
S'M'
p1765
sg1464
g1480
sg1466
I00
sbssg1481
g0
(g47
g2
Ntp1766
Rp1767
(dp1768
g1481
I3
sg1485
I3
sbsg1486
(dp1769
sg1464
S''
p1770
sg1552
I01
sbag15
ag1274
ag1587
ag1630
asbsVorder
p1771
g0
(cdfrpgmon2
TurnOrdering
p1772
g2
Ntp1773
Rp1774
(dp1775
S'ordering'
p1776
(lp1777
(I55
g15
tp1778
a(I53
g1052
tp1779
a(I8
g875
tp1780
a(I5
g782
tp1781
a(I1
g695
tp1782
a(I0
g615
tp1783
asS'index'
p1784
I1
sbsg1715
(lp1785
g1052
ag1160
ag1563
ag369
ag521
ag782
ag615
ag695
ag875
ag1451
ag1718
ag1745
ag15
ag1274
ag1587
ag1630
asb.