ccopy_reg
_reconstructor
p0
(cdfrpgmon2
FATEGAME
p1
c__builtin__
object
p2
Ntp3
Rp4
(dp5
Vrolling
p6
g0
(cdfrpgmon2
PlayerDice
p7
g2
Ntp8
Rp9
(dp10
S'rolls'
p11
(dp12
NI1
sg0
(cdfrpgmon2
Character
p13
g2
Ntp14
Rp15
(dp16
S'stress'
p17
(dp18
S'p'
p19
g0
(cdfrpgmon2
StressTrack
p20
g2
Ntp21
Rp22
(dp23
S'boxes'
p24
I2
sS'checked'
p25
(lp26
sS'shortname'
p27
S'P'
p28
sS'name'
p29
S'Physical'
p30
sS'persist'
p31
I00
sbsS's'
p32
g0
(g20
g2
Ntp33
Rp34
(dp35
g24
I2
sg25
(lp36
sg27
S'S'
p37
sg29
S'Social'
p38
sg31
I00
sbsS'm'
p39
g0
(g20
g2
Ntp40
Rp41
(dp42
g24
I2
sg25
(lp43
sg27
S'M'
p44
sg29
S'Mental'
p45
sg31
I00
sbssS'fate'
p46
g0
(cdfrpgmon2
Fate
p47
g2
Ntp48
Rp49
(dp50
g46
I3
sS'refresh'
p51
I3
sbsS'aspects'
p52
(dp53
sg29
S'Mike'
p54
sS'NPC'
p55
I01
sbI2
sg0
(g13
g2
Ntp56
Rp57
(dp58
Vstress
p59
(dp60
Vp
p61
g0
(g20
g2
Ntp62
Rp63
(dp64
Vboxes
p65
I3
sVchecked
p66
(lp67
sVshortname
p68
VP
p69
sVname
p70
VPhysical
p71
sVpersist
p72
I00
sbsVs
p73
g0
(g20
g2
Ntp74
Rp75
(dp76
g65
I2
sg66
(lp77
sg68
VS
p78
sg70
VSocial
p79
sg72
I00
sbsVm
p80
g0
(g20
g2
Ntp81
Rp82
(dp83
g65
I3
sg66
(lp84
sg68
VM
p85
sg70
VMental
p86
sg72
I00
sbssVfate
p87
g0
(g47
g2
Ntp88
Rp89
(dp90
g87
I6
sVrefresh
p91
I6
sbsVaspects
p92
(dp93
sg70
VHart
p94
sVNPC
p95
I00
sbI-1
sg0
(g13
g2
Ntp96
Rp97
(dp98
g59
(dp99
Vp
p100
g0
(g20
g2
Ntp101
Rp102
(dp103
g65
I2
sg66
(lp104
sg68
g69
sg70
g71
sg72
I00
sbsVs
p105
g0
(g20
g2
Ntp106
Rp107
(dp108
g65
I2
sg66
(lp109
sg68
g78
sg70
g79
sg72
I00
sbsVm
p110
g0
(g20
g2
Ntp111
Rp112
(dp113
g65
I4
sg66
(lp114
sg68
g85
sg70
g86
sg72
I00
sbssg87
g0
(g47
g2
Ntp115
Rp116
(dp117
g87
I8
sg91
I2
sbsg92
(dp118
sg70
VFenrir
p119
sg95
I00
sbI0
ssbsVconfig
p120
(dp121
Vpickle
p122
Vsc.pkl
p123
sVrevisionfile
p124
Vscrevs.yml
p125
sVtitle
p126
VDFRPG Santa Cruz Bot
p127
ssVlookup
p128
g0
(cdfrpgmon2
Lookup
p129
g2
Ntp130
Rp131
(dp132
V_nicks
p133
(dp134
VPablo
p135
g135
sg94
g94
sg54
S'Mike'
p136
sS'Goblin'
p137
S'Hawthorne'
p138
sg119
S'Fen'
p139
sVPatrice
p140
g140
sS'Susan'
p141
S'Fen'
p142
sS'Bot'
p143
S'Dare'
p144
sVHawthorne
p145
S'Hawthorne'
p146
sVDarewolf
p147
S'Dare'
p148
sS'Jan'
p149
S'med'
p150
sS'testNPC'
p151
S'NPC2'
p152
sS'Sparrows'
p153
S'Kat'
p154
sS'Warden'
p155
S'Warden'
p156
sS'Kat'
p157
S'Kat'
p158
sVCedric
p159
g159
sVCalaca
p160
S'med'
p161
sS'Scarecrow'
p162
S'GiantScarecrow'
p163
sVDare
p164
S'Dare'
p165
sS'MagicDragon'
p166
S'med'
p167
ssV_aliases
p168
(dp169
Vfenrir#nick
p170
g97
sVhawthorne#nick
p171
g0
(g13
g2
Ntp172
Rp173
(dp174
g59
(dp175
Vp
p176
g0
(g20
g2
Ntp177
Rp178
(dp179
g65
I2
sg66
(lp180
sg68
g69
sg70
g71
sg72
I00
sbsVs
p181
g0
(g20
g2
Ntp182
Rp183
(dp184
g65
I3
sg66
(lp185
sg68
g78
sg70
g79
sg72
I00
sbsVm
p186
g0
(g20
g2
Ntp187
Rp188
(dp189
g65
I4
sg66
(lp190
sg68
g85
sg70
g86
sg72
I00
sbssg87
g0
(g47
g2
Ntp191
Rp192
(dp193
g87
I0
sg91
I1
sbsg92
(dp194
S'burns'
p195
g0
(cdfrpgmon2
Aspect
p196
g2
Ntp197
Rp198
(dp199
S'flag_transformers'
p200
(dp201
S'ConsMild'
p202
((lp203
S'mild'
p204
aI01
tp205
sS'style'
p206
((lp207
S'#'
p208
ag208
aNtp209
sS'fragile'
p210
((lp211
S'f'
p212
aI00
tp213
sS'ConsSev'
p214
((lp215
S'severe'
p216
aI01
tp217
sS'ConsMod'
p218
((lp219
S'moderate'
p220
aI01
tp221
sS'ConsModerate'
p222
((lp223
g220
aI01
tp224
sS'ConsSevere'
p225
((lp226
g216
aI01
tp227
ssS'flags'
p228
(lp229
g220
ag208
asS'name'
p230
S'burns'
p231
sS'persist'
p232
I01
sbssg70
g145
sg95
I00
sbsVpatrice#nick
p233
g0
(g13
g2
Ntp234
Rp235
(dp236
g59
(dp237
Vp
p238
g0
(g20
g2
Ntp239
Rp240
(dp241
g65
I4
sg66
(lp242
sg68
g69
sg70
g71
sg72
I00
sbsVs
p243
g0
(g20
g2
Ntp244
Rp245
(dp246
g65
I2
sg66
(lp247
sg68
g78
sg70
g79
sg72
I00
sbsVm
p248
g0
(g20
g2
Ntp249
Rp250
(dp251
g65
I3
sg66
(lp252
sg68
g85
sg70
g86
sg72
I00
sbssg87
g0
(g47
g2
Ntp253
Rp254
(dp255
g87
I5
sg91
I6
sbsg92
(dp256
sg70
g140
sg95
I00
sbsVdarewolf
p257
g0
(g13
g2
Ntp258
Rp259
(dp260
g59
(dp261
Vp
p262
g0
(g20
g2
Ntp263
Rp264
(dp265
g65
I6
sg66
(lp266
sg68
g69
sg70
g71
sg72
I00
sbsVs
p267
g0
(g20
g2
Ntp268
Rp269
(dp270
g65
I3
sg66
(lp271
sg68
g78
sg70
g79
sg72
I00
sbsVm
p272
g0
(g20
g2
Ntp273
Rp274
(dp275
g65
I3
sg66
(lp276
sg68
g85
sg70
g86
sg72
I00
sbssg87
g0
(g47
g2
Ntp277
Rp278
(dp279
g87
I8
sg91
I1
sbsg92
(dp280
sg70
g147
sg95
I00
sbsVcedric#nick
p281
g0
(g13
g2
Ntp282
Rp283
(dp284
g59
(dp285
Vp
p286
g0
(g20
g2
Ntp287
Rp288
(dp289
g65
I4
sg66
(lp290
sg68
g69
sg70
g71
sg72
I00
sbsVs
p291
g0
(g20
g2
Ntp292
Rp293
(dp294
g65
I4
sg66
(lp295
sg68
g78
sg70
g79
sg72
I00
sbsVm
p296
g0
(g20
g2
Ntp297
Rp298
(dp299
g65
I2
sg66
(lp300
sg68
g85
sg70
g86
sg72
I00
sbssg87
g0
(g47
g2
Ntp301
Rp302
(dp303
g87
I5
sg91
I1
sbsg92
(dp304
sg70
g159
sg95
I00
sbsVpablo
p305
g0
(g13
g2
Ntp306
Rp307
(dp308
g59
(dp309
Vp
p310
g0
(g20
g2
Ntp311
Rp312
(dp313
g65
I4
sg66
(lp314
sg68
g69
sg70
g71
sg72
I00
sbsVs
p315
g0
(g20
g2
Ntp316
Rp317
(dp318
g65
I3
sg66
(lp319
sg68
g78
sg70
g79
sg72
I00
sbsVm
p320
g0
(g20
g2
Ntp321
Rp322
(dp323
g65
I4
sg66
(lp324
sg68
g85
sg70
g86
sg72
I00
sbssg87
g0
(g47
g2
Ntp325
Rp326
(dp327
g87
I2
sg91
I1
sbsg92
(dp328
sg70
g135
sg95
I00
sbsVhart
p329
g57
sVdare#nick
p330
g0
(g13
g2
Ntp331
Rp332
(dp333
g59
(dp334
Vp
p335
g0
(g20
g2
Ntp336
Rp337
(dp338
g65
I3
sg66
(lp339
sg68
g69
sg70
g71
sg72
I00
sbsVs
p340
g0
(g20
g2
Ntp341
Rp342
(dp343
g65
I4
sg66
(lp344
sg68
g78
sg70
g79
sg72
I00
sbsVm
p345
g0
(g20
g2
Ntp346
Rp347
(dp348
g65
I3
sg66
(lp349
sg68
g85
sg70
g86
sg72
I00
sbssg87
g0
(g47
g2
Ntp350
Rp351
(dp352
g87
I8
sg91
I1
sbsg92
(dp353
sg70
g164
sg95
I00
sbsS'hawk'
p354
g173
sS'pat'
p355
g235
sVpablo#nick
p356
g307
sS'fen'
p357
g97
sVhart#nick
p358
g57
sS'mike'
p359
g15
sS'ced'
p360
g283
sS'mike#nick'
p361
g15
sVhawthorne
p362
g173
sVdarewolf#nick
p363
g259
sVcedric
p364
g283
sVcalaca
p365
g0
(g13
g2
Ntp366
Rp367
(dp368
g59
(dp369
Vp
p370
g0
(g20
g2
Ntp371
Rp372
(dp373
g65
I8
sg66
(lp374
sg68
g69
sg70
g71
sg72
I00
sbsVs
p375
g0
(g20
g2
Ntp376
Rp377
(dp378
g65
I3
sg66
(lp379
sg68
g78
sg70
g79
sg72
I00
sbsVm
p380
g0
(g20
g2
Ntp381
Rp382
(dp383
g65
I4
sg66
(lp384
sg68
g85
sg70
g86
sg72
I00
sbssg87
g0
(g47
g2
Ntp385
Rp386
(dp387
g87
I1
sg91
I1
sbsg92
(dp388
sg70
g160
sg95
I00
sbsVdare
p389
g332
sVfenrir
p390
g97
sVpatrice
p391
g235
sS'fen#nick'
p392
g97
sVcalaca#nick
p393
g367
ssVcharacters
p394
(lp395
g283
ag307
ag332
ag173
ag235
ag57
ag97
ag367
ag259
ag15
asbsVorder
p396
g0
(cdfrpgmon2
TurnOrdering
p397
g2
Ntp398
Rp399
(dp400
S'ordering'
p401
(lp402
sS'index'
p403
Nsbsg394
(lp404
g283
ag307
ag332
ag173
ag235
ag57
ag97
ag367
ag259
ag15
asb.