ccopy_reg
_reconstructor
p0
(cdfrpgmon2
FATEGAME
p1
c__builtin__
object
p2
Ntp3
Rp4
(dp5
S'rolling'
p6
g0
(cdfrpgmon2
PlayerDice
p7
g2
Ntp8
Rp9
(dp10
S'rolls'
p11
(dp12
g0
(cdfrpgmon2
Character
p13
g2
Ntp14
Rp15
(dp16
S'aspects'
p17
(dp18
S'disoriented'
p19
g0
(cdfrpgmon2
Aspect
p20
g2
Ntp21
Rp22
(dp23
S'flag_transformers'
p24
(dp25
S'consmild'
p26
((lp27
S'mild'
p28
aI01
tp29
sS'style'
p30
((lp31
S'#'
p32
ag32
aNtp33
sS'fragile'
p34
((lp35
S'f'
p36
aI00
tp37
sS'conssev'
p38
((lp39
S'severe'
p40
aI01
tp41
sS'consmod'
p42
((lp43
S'moderate'
p44
aI01
tp45
sS'consmoderate'
p46
((lp47
g44
aI01
tp48
sS'conssevere'
p49
((lp50
g40
aI01
tp51
ssS'flags'
p52
(lp53
g32
ag32
asS'name'
p54
S'Disoriented'
p55
sS'persist'
p56
I00
sbssS'stress'
p57
(dp58
S'p'
p59
g0
(cdfrpgmon2
StressTrack
p60
g2
Ntp61
Rp62
(dp63
S'boxes'
p64
I2
sS'shortname'
p65
S'P'
p66
sS'checked'
p67
(lp68
sg54
S'Physical'
p69
sg56
I00
sbsS's'
p70
g0
(g60
g2
Ntp71
Rp72
(dp73
g64
I2
sg65
S'S'
p74
sg67
(lp75
sg54
S'Social'
p76
sg56
I00
sbsS'm'
p77
g0
(g60
g2
Ntp78
Rp79
(dp80
g64
I2
sg65
S'M'
p81
sg67
(lp82
sg54
S'Mental'
p83
sg56
I00
sbssS'fate'
p84
g0
(cdfrpgmon2
Fate
p85
g2
Ntp86
Rp87
(dp88
g84
I3
sS'refresh'
p89
I3
sbsg54
S'Soldier3'
p90
sS'NPC'
p91
I01
sbI-3
sg0
(g13
g2
Ntp92
Rp93
(dp94
g17
(dp95
S'disoriented'
p96
g0
(g20
g2
Ntp97
Rp98
(dp99
g24
(dp100
g26
((lp101
g28
aI01
tp102
sg30
((lp103
g32
ag32
aNtp104
sg34
((lp105
g36
aI00
tp106
sg38
((lp107
g40
aI01
tp108
sg42
((lp109
g44
aI01
tp110
sg46
((lp111
g44
aI01
tp112
sg49
((lp113
g40
aI01
tp114
ssg52
(lp115
sg54
S'Disoriented'
p116
sg56
I00
sbssg57
(dp117
S'p'
p118
g0
(g60
g2
Ntp119
Rp120
(dp121
g64
I2
sg65
S'P'
p122
sg67
(lp123
sg54
g69
sg56
I00
sbsS's'
p124
g0
(g60
g2
Ntp125
Rp126
(dp127
g64
I2
sg65
S'S'
p128
sg67
(lp129
sg54
g76
sg56
I00
sbsS'm'
p130
g0
(g60
g2
Ntp131
Rp132
(dp133
g64
I2
sg65
S'M'
p134
sg67
(lp135
sg54
g83
sg56
I00
sbssg84
g0
(g85
g2
Ntp136
Rp137
(dp138
g84
I3
sg89
I3
sbsg54
S'Soldier4'
p139
sg91
I01
sbI1
sg0
(g13
g2
Ntp140
Rp141
(dp142
S'stress'
p143
(dp144
S'p'
p145
g0
(g60
g2
Ntp146
Rp147
(dp148
S'boxes'
p149
I8
sS'checked'
p150
(lp151
I2
aI7
aI1
aI3
aI4
aI5
asS'shortname'
p152
S'P'
p153
sS'name'
p154
S'Physical'
p155
sS'persist'
p156
I00
sbsS'm'
p157
g0
(g60
g2
Ntp158
Rp159
(dp160
g149
I4
sg150
(lp161
sg152
S'M'
p162
sg154
S'Mental'
p163
sg156
I00
sbssS'fate'
p164
g0
(g85
g2
Ntp165
Rp166
(dp167
g164
I2
sS'refresh'
p168
I1
sbsS'aspects'
p169
(dp170
S'disoriented'
p171
g0
(g20
g2
Ntp172
Rp173
(dp174
g24
(dp175
g26
((lp176
g28
aI01
tp177
sg30
((lp178
g32
ag32
aNtp179
sg34
((lp180
g36
aI00
tp181
sg38
((lp182
g40
aI01
tp183
sg42
((lp184
g44
aI01
tp185
sg46
((lp186
g44
aI01
tp187
sg49
((lp188
g40
aI01
tp189
ssg52
(lp190
g32
asg54
S'Disoriented'
p191
sg56
I00
sbssg154
S'Warmonger'
p192
sS'NPC'
p193
I00
sbI3
sg0
(g13
g2
Ntp194
Rp195
(dp196
g17
(dp197
S'sadness'
p198
g0
(g20
g2
Ntp199
Rp200
(dp201
g24
(dp202
g26
((lp203
g28
aI01
tp204
sg30
((lp205
g32
ag32
aNtp206
sg34
((lp207
g36
aI00
tp208
sg38
((lp209
g40
aI01
tp210
sg42
((lp211
g44
aI01
tp212
sg46
((lp213
g44
aI01
tp214
sg49
((lp215
g40
aI01
tp216
ssg52
(lp217
g32
ag32
asg54
S'sadness'
p218
sg56
I00
sbsS'disoriented'
p219
g0
(g20
g2
Ntp220
Rp221
(dp222
g24
(dp223
g26
((lp224
g28
aI01
tp225
sg30
((lp226
g32
ag32
aNtp227
sg34
((lp228
g36
aI00
tp229
sg38
((lp230
g40
aI01
tp231
sg42
((lp232
g44
aI01
tp233
sg46
((lp234
g44
aI01
tp235
sg49
((lp236
g40
aI01
tp237
ssg52
(lp238
g32
asg54
S'Disoriented'
p239
sg56
I00
sbssg57
(dp240
S'p'
p241
g0
(g60
g2
Ntp242
Rp243
(dp244
g64
I2
sg65
S'P'
p245
sg67
(lp246
sg54
g69
sg56
I00
sbsS's'
p247
g0
(g60
g2
Ntp248
Rp249
(dp250
g64
I2
sg65
S'S'
p251
sg67
(lp252
sg54
g76
sg56
I00
sbsS'm'
p253
g0
(g60
g2
Ntp254
Rp255
(dp256
g64
I2
sg65
S'M'
p257
sg67
(lp258
sg54
g83
sg56
I00
sbssg84
g0
(g85
g2
Ntp259
Rp260
(dp261
g84
I4
sg89
I3
sbsg54
S'Soldier2'
p262
sg91
I01
sbI1
sg0
(g13
g2
Ntp263
Rp264
(dp265
g143
(dp266
g145
g0
(g60
g2
Ntp267
Rp268
(dp269
g149
I3
sg150
(lp270
I2
asg152
S'P'
p271
sg154
g155
sg156
I00
sbsg157
g0
(g60
g2
Ntp272
Rp273
(dp274
g149
I4
sg150
(lp275
sg152
S'M'
p276
sg154
g163
sg156
I00
sbssg164
g0
(g85
g2
Ntp277
Rp278
(dp279
g164
I8
sg168
I1
sbsg169
(dp280
S'disoriented'
p281
g0
(g20
g2
Ntp282
Rp283
(dp284
g24
(dp285
g26
((lp286
g28
aI01
tp287
sg30
((lp288
g32
ag32
aNtp289
sg34
((lp290
g36
aI00
tp291
sg38
((lp292
g40
aI01
tp293
sg42
((lp294
g44
aI01
tp295
sg46
((lp296
g44
aI01
tp297
sg49
((lp298
g40
aI01
tp299
ssg52
(lp300
sg54
S'disoriented'
p301
sg56
I00
sbssg154
S'Tragedy'
p302
sg193
I00
sbI7
sg0
(g13
g2
Ntp303
Rp304
(dp305
g17
(dp306
sg57
(dp307
S'p'
p308
g0
(g60
g2
Ntp309
Rp310
(dp311
g64
I2
sg65
S'P'
p312
sg67
(lp313
sg54
g69
sg56
I00
sbsS's'
p314
g0
(g60
g2
Ntp315
Rp316
(dp317
g64
I2
sg65
S'S'
p318
sg67
(lp319
sg54
g76
sg56
I00
sbsS'm'
p320
g0
(g60
g2
Ntp321
Rp322
(dp323
g64
I2
sg65
S'M'
p324
sg67
(lp325
sg54
g83
sg56
I00
sbssg84
g0
(g85
g2
Ntp326
Rp327
(dp328
g84
I3
sg89
I3
sbsg54
S'Cannons'
p329
sg91
I01
sbI3
sg0
(g13
g2
Ntp330
Rp331
(dp332
g17
(dp333
S'monkey on your back'
p334
g0
(g20
g2
Ntp335
Rp336
(dp337
g24
(dp338
g26
((lp339
g28
aI01
tp340
sg30
((lp341
g32
ag32
aNtp342
sg34
((lp343
g36
aI00
tp344
sg38
((lp345
g40
aI01
tp346
sg42
((lp347
g44
aI01
tp348
sg46
((lp349
g44
aI01
tp350
sg49
((lp351
g40
aI01
tp352
ssg52
(lp353
g32
asg54
S'monkey on your back'
p354
sg56
I00
sbsS'sparking right arm'
p355
g0
(g20
g2
Ntp356
Rp357
(dp358
g24
(dp359
g26
((lp360
g28
aI01
tp361
sg30
((lp362
g32
ag32
aNtp363
sg34
((lp364
g36
aI00
tp365
sg38
((lp366
g40
aI01
tp367
sg42
((lp368
g44
aI01
tp369
sg46
((lp370
g44
aI01
tp371
sg49
((lp372
g40
aI01
tp373
ssg52
(lp374
g28
asg54
S'Sparking Right Arm'
p375
sg56
I01
sbsS'entangled'
p376
g0
(g20
g2
Ntp377
Rp378
(dp379
g24
(dp380
g26
((lp381
g28
aI01
tp382
sg30
((lp383
g32
ag32
aNtp384
sg34
((lp385
g36
aI00
tp386
sg38
((lp387
g40
aI01
tp388
sg42
((lp389
g44
aI01
tp390
sg46
((lp391
g44
aI01
tp392
sg49
((lp393
g40
aI01
tp394
ssg52
(lp395
g32
asg54
S'Entangled'
p396
sg56
I00
sbsS'flashed'
p397
g0
(g20
g2
Ntp398
Rp399
(dp400
g24
(dp401
g26
((lp402
g28
aI01
tp403
sg30
((lp404
g32
ag32
aNtp405
sg34
((lp406
g36
aI00
tp407
sg38
((lp408
g40
aI01
tp409
sg42
((lp410
g44
aI01
tp411
sg46
((lp412
g44
aI01
tp413
sg49
((lp414
g40
aI01
tp415
ssg52
(lp416
sg54
S'Flashed'
p417
sg56
I00
sbssg57
(dp418
S'p'
p419
g0
(g60
g2
Ntp420
Rp421
(dp422
g64
I2
sg65
S'P'
p423
sg67
(lp424
sg54
g69
sg56
I00
sbsS's'
p425
g0
(g60
g2
Ntp426
Rp427
(dp428
g64
I2
sg65
S'S'
p429
sg67
(lp430
sg54
g76
sg56
I00
sbsS'm'
p431
g0
(g60
g2
Ntp432
Rp433
(dp434
g64
I2
sg65
S'M'
p435
sg67
(lp436
sg54
g83
sg56
I00
sbssg84
g0
(g85
g2
Ntp437
Rp438
(dp439
g84
I4
sg89
I3
sbsg54
S'Robot'
p440
sg91
I01
sbI2
sg0
(g13
g2
Ntp441
Rp442
(dp443
g17
(dp444
S'disoriented'
p445
g0
(g20
g2
Ntp446
Rp447
(dp448
g24
(dp449
g26
((lp450
g28
aI01
tp451
sg30
((lp452
g32
ag32
aNtp453
sg34
((lp454
g36
aI00
tp455
sg38
((lp456
g40
aI01
tp457
sg42
((lp458
g44
aI01
tp459
sg46
((lp460
g44
aI01
tp461
sg49
((lp462
g40
aI01
tp463
ssg52
(lp464
g32
asg54
S'Disoriented'
p465
sg56
I00
sbssg57
(dp466
S'p'
p467
g0
(g60
g2
Ntp468
Rp469
(dp470
g64
I2
sg65
S'P'
p471
sg67
(lp472
sg54
g69
sg56
I00
sbsS's'
p473
g0
(g60
g2
Ntp474
Rp475
(dp476
g64
I2
sg65
S'S'
p477
sg67
(lp478
sg54
g76
sg56
I00
sbsS'm'
p479
g0
(g60
g2
Ntp480
Rp481
(dp482
g64
I2
sg65
S'M'
p483
sg67
(lp484
sg54
g83
sg56
I00
sbssg84
g0
(g85
g2
Ntp485
Rp486
(dp487
g84
I3
sg89
I3
sbsg54
S'Soldier2'
p488
sg91
I01
sbI2
sg0
(g13
g2
Ntp489
Rp490
(dp491
g143
(dp492
g145
g0
(g60
g2
Ntp493
Rp494
(dp495
g149
I4
sg150
(lp496
I2
aI3
aI4
asg152
S'P'
p497
sg154
g155
sg156
I00
sbsg157
g0
(g60
g2
Ntp498
Rp499
(dp500
g149
I3
sg150
(lp501
sg152
S'M'
p502
sg154
g163
sg156
I00
sbssg164
g0
(g85
g2
Ntp503
Rp504
(dp505
g164
I4
sg168
I2
sbsg169
(dp506
S'down in the dumps'
p507
g0
(g20
g2
Ntp508
Rp509
(dp510
g24
(dp511
g26
((lp512
g28
aI01
tp513
sg30
((lp514
g32
ag32
aNtp515
sg34
((lp516
g36
aI00
tp517
sg38
((lp518
g40
aI01
tp519
sg42
((lp520
g44
aI01
tp521
sg46
((lp522
g44
aI01
tp523
sg49
((lp524
g40
aI01
tp525
ssg52
(lp526
g32
asg54
S'Down in the Dumps'
p527
sg56
I00
sbsS'on the move'
p528
g0
(g20
g2
Ntp529
Rp530
(dp531
g24
(dp532
g26
((lp533
g28
aI01
tp534
sg30
((lp535
g32
ag32
aNtp536
sg34
((lp537
g36
aI00
tp538
sg38
((lp539
g40
aI01
tp540
sg42
((lp541
g44
aI01
tp542
sg46
((lp543
g44
aI01
tp544
sg49
((lp545
g40
aI01
tp546
ssg52
(lp547
sg54
S'On the Move'
p548
sg56
I00
sbssg154
S'CptSunshine'
p549
sg193
I00
sbI5
sg0
(g13
g2
Ntp550
Rp551
(dp552
g17
(dp553
S'disoriented'
p554
g0
(g20
g2
Ntp555
Rp556
(dp557
g24
(dp558
g26
((lp559
g28
aI01
tp560
sg30
((lp561
g32
ag32
aNtp562
sg34
((lp563
g36
aI00
tp564
sg38
((lp565
g40
aI01
tp566
sg42
((lp567
g44
aI01
tp568
sg46
((lp569
g44
aI01
tp570
sg49
((lp571
g40
aI01
tp572
ssg52
(lp573
sg54
S'disoriented'
p574
sg56
I00
sbssg57
(dp575
S'p'
p576
g0
(g60
g2
Ntp577
Rp578
(dp579
g64
I2
sg65
S'P'
p580
sg67
(lp581
sg54
g69
sg56
I00
sbsS's'
p582
g0
(g60
g2
Ntp583
Rp584
(dp585
g64
I2
sg65
S'S'
p586
sg67
(lp587
sg54
g76
sg56
I00
sbsS'm'
p588
g0
(g60
g2
Ntp589
Rp590
(dp591
g64
I2
sg65
S'M'
p592
sg67
(lp593
sg54
g83
sg56
I00
sbssg84
g0
(g85
g2
Ntp594
Rp595
(dp596
g84
I3
sg89
I3
sbsg54
S'Soldier1'
p597
sg91
I01
sbI0
sg0
(g13
g2
Ntp598
Rp599
(dp600
g143
(dp601
g145
g0
(g60
g2
Ntp602
Rp603
(dp604
g149
I4
sg150
(lp605
I2
aI3
aI4
asg152
S'P'
p606
sg154
g155
sg156
I00
sbsg157
g0
(g60
g2
Ntp607
Rp608
(dp609
g149
I2
sg150
(lp610
sg152
S'M'
p611
sg154
g163
sg156
I00
sbssg164
g0
(g85
g2
Ntp612
Rp613
(dp614
g164
I2
sg168
I1
sbsg169
(dp615
S'cannon barrel'
p616
g0
(g20
g2
Ntp617
Rp618
(dp619
g24
(dp620
g26
((lp621
g28
aI01
tp622
sg30
((lp623
g32
ag32
aNtp624
sg34
((lp625
g36
aI00
tp626
sg38
((lp627
g40
aI01
tp628
sg42
((lp629
g44
aI01
tp630
sg46
((lp631
g44
aI01
tp632
sg49
((lp633
g40
aI01
tp634
ssg52
(lp635
sg54
S'cannon barrel'
p636
sg56
I00
sbssg154
S'Apex'
p637
sg193
I00
sbI2
ssbsS'config'
p638
(dp639
S'pickle'
p640
S'ss.pkl'
p641
sS'revisionfile'
p642
S''
p643
sS'title'
p644
S'Suicide Squad'
p645
ssS'lookup'
p646
g0
(cdfrpgmon2
Lookup
p647
g2
Ntp648
Rp649
(dp650
S'_nicks'
p651
(dp652
g549
S'CaptainSUNSHINE'
p653
sg637
S'Apex'
p654
sg440
S'GM'
p655
sg192
S'Warmonger'
p656
sg329
S'GM'
p657
sS'Soldier2'
p658
S'GM'
p659
sg90
S'GM'
p660
sS'Soldier1'
p661
S'GM'
p662
sg302
S'Tragedy'
p663
sg139
S'GM'
p664
ssS'_aliases'
p665
(dp666
S'soldier2'
p667
g442
sS'gm#nick'
p668
g331
sS'warmonger#nick'
p669
g141
sS'apex#nick'
p670
g599
sS'cptsunshine#nick'
p671
g490
sS'apex'
p672
g599
sS'jaysen#nick'
p673
g599
sS'robot'
p674
g331
sS'captainsunshine#nick'
p675
g490
sS'soldier1'
p676
g551
sS'cptsunshine'
p677
g490
sS'cannons'
p678
g304
sS'tragedy#nick'
p679
g264
sS'soldier3'
p680
g15
sS'warmonger'
p681
g141
sS'tragedy'
p682
g264
sS'soldier4'
p683
g93
ssS'characters'
p684
(lp685
g264
ag599
ag490
ag141
ag551
ag442
ag15
ag93
ag331
ag304
asbsS'order'
p686
g0
(cdfrpgmon2
TurnOrdering
p687
g2
Ntp688
Rp689
(dp690
S'ordering'
p691
(lp692
(I6
g490
tp693
a(I5
g264
tp694
a(I3
g331
tp695
a(I2
g141
tp696
a(I1
g599
tp697
asS'index'
p698
I4
sbsg684
(lp699
g264
ag599
ag490
ag141
ag551
ag442
ag15
ag93
ag331
ag304
asb.