ccopy_reg
_reconstructor
p0
(cdfrpgmon2
FATEGAME
p1
c__builtin__
object
p2
Ntp3
Rp4
(dp5
S'rolling'
p6
g0
(cdfrpgmon2
PlayerDice
p7
g2
Ntp8
Rp9
(dp10
S'rolls'
p11
(dp12
sbsS'config'
p13
(dp14
S'pickle'
p15
S'ss.pkl'
p16
sS'revisionfile'
p17
S''
p18
sS'title'
p19
S'Suicide Squad'
p20
ssS'lookup'
p21
g0
(cdfrpgmon2
Lookup
p22
g2
Ntp23
Rp24
(dp25
S'_nicks'
p26
(dp27
S'Apex'
p28
g28
sS'CptSunshine'
p29
g29
sS'Tragedy'
p30
S'med'
p31
sS'Warmonger'
p32
g32
ssS'_aliases'
p33
(dp34
S'warmonger#nick'
p35
g0
(cdfrpgmon2
Character
p36
g2
Ntp37
Rp38
(dp39
S'stress'
p40
(dp41
S'p'
p42
g0
(cdfrpgmon2
StressTrack
p43
g2
Ntp44
Rp45
(dp46
S'boxes'
p47
I8
sS'checked'
p48
(lp49
sS'shortname'
p50
S'P'
p51
sS'name'
p52
S'Physical'
p53
sS'persist'
p54
I00
sbsS'm'
p55
g0
(g43
g2
Ntp56
Rp57
(dp58
g47
I4
sg48
(lp59
sg50
S'M'
p60
sg52
S'Mental'
p61
sg54
I00
sbssS'fate'
p62
g0
(cdfrpgmon2
Fate
p63
g2
Ntp64
Rp65
(dp66
g62
I1
sS'refresh'
p67
I1
sbsS'aspects'
p68
(dp69
sg52
g32
sS'NPC'
p70
I00
sbsS'apex#nick'
p71
g0
(g36
g2
Ntp72
Rp73
(dp74
g40
(dp75
g42
g0
(g43
g2
Ntp76
Rp77
(dp78
g47
I4
sg48
(lp79
sg50
S'P'
p80
sg52
g53
sg54
I00
sbsg55
g0
(g43
g2
Ntp81
Rp82
(dp83
g47
I2
sg48
(lp84
sg50
S'M'
p85
sg52
g61
sg54
I00
sbssg62
g0
(g63
g2
Ntp86
Rp87
(dp88
g62
I1
sg67
I1
sbsg68
(dp89
sg52
g28
sg70
I00
sbsS'cptsunshine#nick'
p90
g0
(g36
g2
Ntp91
Rp92
(dp93
g40
(dp94
g42
g0
(g43
g2
Ntp95
Rp96
(dp97
g47
I4
sg48
(lp98
sg50
S'P'
p99
sg52
g53
sg54
I00
sbsg55
g0
(g43
g2
Ntp100
Rp101
(dp102
g47
I3
sg48
(lp103
sg50
S'M'
p104
sg52
g61
sg54
I00
sbssg62
g0
(g63
g2
Ntp105
Rp106
(dp107
g62
I2
sg67
I2
sbsg68
(dp108
sg52
g29
sg70
I00
sbsS'apex'
p109
g73
sS'cptsunshine'
p110
g92
sS'med#nick'
p111
g0
(g36
g2
Ntp112
Rp113
(dp114
g40
(dp115
g42
g0
(g43
g2
Ntp116
Rp117
(dp118
g47
I3
sg48
(lp119
sg50
S'P'
p120
sg52
g53
sg54
I00
sbsg55
g0
(g43
g2
Ntp121
Rp122
(dp123
g47
I4
sg48
(lp124
sg50
S'M'
p125
sg52
g61
sg54
I00
sbssg62
g0
(g63
g2
Ntp126
Rp127
(dp128
g62
I1
sg67
I1
sbsg68
(dp129
sg52
g30
sg70
I00
sbsS'tragedy#nick'
p130
g113
sS'warmonger'
p131
g38
sS'tragedy'
p132
g113
ssS'characters'
p133
(lp134
g113
ag73
ag92
ag38
asbsS'order'
p135
g0
(cdfrpgmon2
TurnOrdering
p136
g2
Ntp137
Rp138
(dp139
S'ordering'
p140
(lp141
sS'index'
p142
Nsbsg133
(lp143
g113
ag73
ag92
ag38
asb.