ccopy_reg
_reconstructor
p0
(cdfrpgmon2
FATEGAME
p1
c__builtin__
object
p2
Ntp3
Rp4
(dp5
S'rolling'
p6
g0
(cdfrpgmon2
PlayerDice
p7
g2
Ntp8
Rp9
(dp10
S'rolls'
p11
(dp12
sbsS'config'
p13
(dp14
S'pickle'
p15
S'ss.pkl'
p16
sS'revisionfile'
p17
S''
p18
sS'title'
p19
S'Suicide Squad'
p20
ssS'lookup'
p21
g0
(cdfrpgmon2
Lookup
p22
g2
Ntp23
Rp24
(dp25
S'_nicks'
p26
(dp27
S'CptSunshine'
p28
g28
sS'Apex'
p29
S'Jaysen'
p30
sS'Warmonger'
p31
g31
sS'Soldier2'
p32
S'Jaysen'
p33
sS'Soldier1'
p34
S'Jaysen'
p35
sS'Tragedy'
p36
S'med'
p37
ssS'_aliases'
p38
(dp39
S'warmonger#nick'
p40
g0
(cdfrpgmon2
Character
p41
g2
Ntp42
Rp43
(dp44
S'stress'
p45
(dp46
S'p'
p47
g0
(cdfrpgmon2
StressTrack
p48
g2
Ntp49
Rp50
(dp51
S'boxes'
p52
I8
sS'checked'
p53
(lp54
sS'shortname'
p55
S'P'
p56
sS'name'
p57
S'Physical'
p58
sS'persist'
p59
I00
sbsS'm'
p60
g0
(g48
g2
Ntp61
Rp62
(dp63
g52
I4
sg53
(lp64
sg55
S'M'
p65
sg57
S'Mental'
p66
sg59
I00
sbssS'fate'
p67
g0
(cdfrpgmon2
Fate
p68
g2
Ntp69
Rp70
(dp71
g67
I1
sS'refresh'
p72
I1
sbsS'aspects'
p73
(dp74
sg57
g31
sS'NPC'
p75
I00
sbsS'apex#nick'
p76
g0
(g41
g2
Ntp77
Rp78
(dp79
g45
(dp80
g47
g0
(g48
g2
Ntp81
Rp82
(dp83
g52
I4
sg53
(lp84
sg55
S'P'
p85
sg57
g58
sg59
I00
sbsg60
g0
(g48
g2
Ntp86
Rp87
(dp88
g52
I2
sg53
(lp89
sg55
S'M'
p90
sg57
g66
sg59
I00
sbssg67
g0
(g68
g2
Ntp91
Rp92
(dp93
g67
I1
sg72
I1
sbsg73
(dp94
sg57
g29
sg75
I00
sbsS'cptsunshine#nick'
p95
g0
(g41
g2
Ntp96
Rp97
(dp98
g45
(dp99
g47
g0
(g48
g2
Ntp100
Rp101
(dp102
g52
I4
sg53
(lp103
sg55
S'P'
p104
sg57
g58
sg59
I00
sbsg60
g0
(g48
g2
Ntp105
Rp106
(dp107
g52
I3
sg53
(lp108
sg55
S'M'
p109
sg57
g66
sg59
I00
sbssg67
g0
(g68
g2
Ntp110
Rp111
(dp112
g67
I2
sg72
I2
sbsg73
(dp113
sg57
g28
sg75
I00
sbsS'apex'
p114
g78
sS'jaysen#nick'
p115
g78
sS'cptsunshine'
p116
g97
sS'tragedy#nick'
p117
g0
(g41
g2
Ntp118
Rp119
(dp120
g45
(dp121
g47
g0
(g48
g2
Ntp122
Rp123
(dp124
g52
I3
sg53
(lp125
sg55
S'P'
p126
sg57
g58
sg59
I00
sbsg60
g0
(g48
g2
Ntp127
Rp128
(dp129
g52
I4
sg53
(lp130
sg55
S'M'
p131
sg57
g66
sg59
I00
sbssg67
g0
(g68
g2
Ntp132
Rp133
(dp134
g67
I1
sg72
I1
sbsg73
(dp135
sg57
g36
sg75
I00
sbsS'warmonger'
p136
g43
sS'tragedy'
p137
g119
ssS'characters'
p138
(lp139
g119
ag78
ag97
ag43
asbsS'order'
p140
g0
(cdfrpgmon2
TurnOrdering
p141
g2
Ntp142
Rp143
(dp144
S'ordering'
p145
(lp146
sS'index'
p147
Nsbsg138
(lp148
g119
ag78
ag97
ag43
asb.